((dp0
S'fff6da05279f6909e0c5445612c6bfc0_3132'
p1
S'fff6d-1'
p2
sS'fff1127afad12590ea0655eb9bae3910_3196'
p3
S'fff11-1'
p4
sS'ffdb21a872cdb1f04f6f512dcfebb0c0_2868'
p5
S'ffdb2-1'
p6
sS'ff85d3f8443ba214f3adf4a6227aa5a5_3248'
p7
S'ff85d-1'
p8
sS'a1a5a8d4da63f6744874190a4ce6ba5f_3268'
p9
S'a1a5a-1'
p10
sS'fff7cf6ab07588c2344362421845e5a0_3172'
p11
S'fff7c-16'
p12
sS'fff6dfd1a3992fc0d1b8e29db87cdd70_3196'
p13
S'fff6d-3'
p14
sS'5375fd472c9c4dbb143a89796571cc9e_3216'
p15
S'5375f-1'
p16
sS'ffe2f3a42a55a25f537e466735c48eb0_3224'
p17
S'ffe2f-1'
p18
sS'fffd5c74115258093d61282ae6b2ead0_2828'
p19
S'fffd5-3'
p20
sS'fff7cc648deea0712f1cced9f01ee4b0_3252'
p21
S'fff7c-5'
p22
sS'5ee1ed1d1c3dbbb3e920e56229023080_3268'
p23
S'5ee1e-4'
p24
sS'ffff607c3b88c149c743cd8b1021a3d0_3072'
p25
S'ffff6-1'
p26
sS'bc7f15b89bbd891f95425abb4f3b8c30_3396'
p27
S'bc7f1-14'
p28
sS'b7e52b14dc1dfa001e3c28b217b104d0_3316'
p29
S'b7e52-12'
p30
sS'ff93d98dcbb9e143b3652ad10c1892b0_3188'
p31
S'ff93d-2'
p32
sS'ffff2915f8f4ae0b7de3cbbd88dd3a40_2876'
p33
S'ffff2-1'
p34
sS'ff5579627463b94997330507ec581fc0_3268'
p35
S'ff557-1'
p36
sS'ffdc253045d08a1496d52fb26aeab730_3256'
p37
S'ffdc2-1'
p38
sS'717c6535d2743d25384de477af509559_3280'
p39
S'717c6-1'
p40
sS'11dbaa09f5b949c9d6e0db7e157cc860_3308'
p41
S'11dba-2'
p42
sS'fff6cd7b2778385fac142cb0df6999b0_3208'
p43
S'fff6c-6'
p44
sS'ffea4eb7a22be131b1ac2348bccee131_3068'
p45
S'ffea4-1'
p46
sS'ff9e10ae3f92010425b51d503e02a7b0_3268'
p47
S'ff9e1-1'
p48
sS'82a0f36bad3db10cda8bdd8601348959_3200'
p49
S'82a0f-1'
p50
sS'bc7f15b89bbd891f95425abb4f3b8c30_3264'
p51
S'bc7f1-5'
p52
sS'b7e52b14dc1dfa001e3c28b217b104d0_3220'
p53
S'b7e52-3'
p54
sS'fff47004caa5598f4b98907239d45120_IE_3192'
p55
S'fff47-5'
p56
sS'fff94dc340f554f85ba93720899c7030_3112'
p57
S'fff94-2'
p58
sS'0708a8bcda4a62e4eb87abcfb1b65860_3372'
p59
S'0708a-8'
p60
sS'fff4eb4c0d020fc3a532f1fb98c5daa0_3260'
p61
S'fff4e-1'
p62
sS'ffbb1651c7ed93e50d52ffce98b7eec4_3188'
p63
S'ffbb1-1'
p64
sS'd9096fae58f73355e0da673d8715c210_3212'
p65
S'd9096-2'
p66
sS'fffec83ddd89b98ff7d7d953f3e73e50_3272'
p67
S'fffec-2'
p68
sS'fffb9b7510c4ebd1338aa482f5e41147_3056'
p69
S'fffb9-1'
p70
sS'fff751922a607ed0888f9d23819cb4c0_3316'
p71
S'fff75-6'
p72
sS'fff82a9ea12d5379a162f1897bac5ee6_3104'
p73
S'fff82-3'
p74
sS'fffc5416a5cf167ee6f27842013b9b20_3124'
p75
S'fffc5-2'
p76
sS'fff814e9c22276c8ffc7c81c520f4d10_3428'
p77
S'fff81-2'
p78
sS'ffff2915f8f4ae0b7de3cbbd88dd3a40_2904'
p79
S'ffff2-2'
p80
sS'0708a8bcda4a62e4eb87abcfb1b65860_3200'
p81
S'0708a-1'
p82
sS'fff351ad66140a5e49eb323c4bf53700_3172'
p83
S'fff35-2'
p84
sS'fffae342dbd287cdda3c60217d5c7af0_tmp_3280'
p85
S'fffae-5'
p86
sS'ffdcfda44534d16faf8c8c1080f9ce40_3132'
p87
S'ffdcf-2'
p88
sS'fff66291d228792b04ae9f52650c5b80_3140'
p89
S'fff66-2'
p90
sS'ff064dac8e040c8c704cba6d4a012760_3200'
p91
S'ff064-1'
p92
sS'a0ceb22ed87df9019f39c5c135a58c17_3188'
p93
S'a0ceb-1'
p94
sS'fff832b43dd3c9801399fa092c6148e0_3124'
p95
S'fff83-3'
p96
sS'e44b45e4d029c1c5257ce2365b797d20_3240'
p97
S'e44b4-2'
p98
sS'ffeccdb87e1fa443d2369cd71bfae380_3112'
p99
S'ffecc-1'
p100
sS'ff5cca46c3b9dbf0e521d68d8d0fe130_3108'
p101
S'ff5cc-1'
p102
sS'ff73a8aa03b4887801a2b4cd2393ba80_3268'
p103
S'ff73a-1'
p104
sS'5169113d8207a5605ff57604a00c030a_tmp_2860'
p105
S'51691-6'
p106
sS'ffff3a2dce8e7ae970cd56a6868ce3d0_3180'
p107
S'ffff3-2'
p108
sS'1a0f80a1d1f2216f565df318a4356b50_3300'
p109
S'1a0f8-2'
p110
sS'ffe45216ee1d537dadf7ecdce88d0410_3140'
p111
S'ffe45-5'
p112
sS'ee585bcbf539549334892afd674a6e10_3256'
p113
S'ee585-1'
p114
sS'ffff653512ab48ebc0351515ad934ac0_3236'
p115
S'ffff6-2'
p116
sS'707e73f2f46c9bf3afca84e05b895862_3252'
p117
S'707e7-2'
p118
sS'b5088c9af7eeb7d2d966881a017384b6_3120'
p119
S'b5088-1'
p120
sS'fffda772e9682b5cd713a1aff6bebe71_3144'
p121
S'fffda-1'
p122
sS'fff000bb386ed5fca21866fab5172500_3132'
p123
S'fff00-1'
p124
sS'ffdfa9b9d02e87e0566d2648f5f657a0_3272'
p125
S'ffdfa-6'
p126
sS'fffa463ab13abb0429c6defad78d94d0_3160'
p127
S'fffa4-1'
p128
sS'fffed6c63f8c3a14238bcf78c80cca10_3176'
p129
S'fffed-3'
p130
sS'fffc84bb695f8ba7c7164ef9c69ba480_3252'
p131
S'fffc8-3'
p132
sS'ffba29aeb34c615a2a621c951712d260_3112'
p133
S'ffba2-1'
p134
sS'ffdd217403c094e38058567d29215c40_3232'
p135
S'ffdd2-3'
p136
sS'fff0a77de7262709003ae190190acaf0_3292'
p137
S'fff0a-3'
p138
sS'fff44b0e85a426813e743df7b76f1200_3180'
p139
S'fff44-3'
p140
sS'0c494687e1a01a7e3eefc541f0a91d50_3204'
p141
S'0c494-6'
p142
sS'b23a2d27c1a90d5e4030688e934c0a50_3192'
p143
S'b23a2-1'
p144
sS'ff918412d6590b447ea43b7f8ec02720_3272'
p145
S'ff918-1'
p146
sS'fffda772e9682b5cd713a1aff6bebe71_3364'
p147
S'fffda-14'
p148
sS'c5e453ce174407cc2796c5f3444cc2c6_3172'
p149
S'c5e45-1'
p150
sS'260e166c56a4340962aa2bc2cae3eb43_3180'
p151
S'260e1-1'
p152
sS'da508d53f4f904089d63e059be87e431_3188'
p153
S'da508-1'
p154
sS'fff46415ad2feb21edc56a3218d0b830_3176'
p155
S'fff46-1'
p156
sS'd381dc0651aee234b7d59c06800049c4_3116'
p157
S'd381d-1'
p158
sS'fff8603f33601b77f871e492bc6dc110_3048'
p159
S'fff86-1'
p160
sS'ff08082645665f33630663500a8262d0_IE_3140'
p161
S'ff080-3'
p162
sS'fffcb60e432a6ce2c7a7e66607ec31f0_3224'
p163
S'fffcb-1'
p164
sS'fff0203b682aa62f1d93c7fbc37915f0_3244'
p165
S'fff02-7'
p166
sS'ffe5eaa82debc744b9c9c900fa22bc70_3172'
p167
S'ffe5e-7'
p168
sS'fff832055167b4bb13008966e4fad0f0_3220'
p169
S'fff83-1'
p170
sS'ff7d299b9ac061200162c82f23495b50_3312'
p171
S'ff7d2-1'
p172
sS'ff7d1ed012ac7d9fb2e448281215d170_IE_3256'
p173
S'ff7d1-3'
p174
sS'fffae1c3fc528f57d57669d452de72d0_3168'
p175
S'fffae-1'
p176
sS'fffb8cb718580ac0cff8f772da597615_3072'
p177
S'fffb8-3'
p178
sS'ffb553102767db9db79aa536ed121360_3084'
p179
S'ffb55-1'
p180
sS'518c227fc67926213502da39d8d44fd6_3380'
p181
S'518c2-4'
p182
sS'fff832b43dd3c9801399fa092c6148e0_3112'
p183
S'fff83-2'
p184
sS'ffeb8c60dfb971d84dcb0a5f12203a90_3052'
p185
S'ffeb8-1'
p186
sS'fff80ea0a648bee1b571b35dbaf37b60_3200'
p187
S'fff80-13'
p188
sS'fff7cc648deea0712f1cced9f01ee4b0_3316'
p189
S'fff7c-9'
p190
sS'2c05a699fcdd02c4a3e982543363fa44_3256'
p191
S'2c05a-1'
p192
sS'60ef32102d1ae0d8bfa046757739edcd_3228'
p193
S'60ef3-1'
p194
sS'fff8270784493de20e155fc696c83790_WGWY_3156'
p195
S'fff82-2'
p196
sS'fff71cc863a5f0a43a9d12692606b2f0_3216'
p197
S'fff71-4'
p198
sS'ffee895a1c0cff53bd6c1297628cf730_3216'
p199
S'ffee8-2'
p200
sS'fff42fb25c1242e0b81dbdd175029ee0_3184'
p201
S'fff42-4'
p202
sS'ffd2d2b9806428a8569953f78d2d1670_3188'
p203
S'ffd2d-1'
p204
sS'ff07a4eccc209b35c5b0d5eee38d96c0_3304'
p205
S'ff07a-2'
p206
sS'fffc5d0032ebce8f904fdef668c6bb10_3220'
p207
S'fffc5-3'
p208
sS'd62e314616772f9b0401f7738e262eb2_3064'
p209
S'd62e3-1'
p210
sS'ffff90de328dc28095d7610c18b20130_3300'
p211
S'ffff9-1'
p212
sS'fff08646c278e8ac4fb6e25908679220_3104'
p213
S'fff08-1'
p214
sS'ffe5e3a2f1cd7de2603f80ff57f8f950_3112'
p215
S'ffe5e-1'
p216
sS'ffa7866a1b36618cad84191fcb9f5a20_3212'
p217
S'ffa78-1'
p218
sS'd108622979a9586df24338f535b3f047_tmp_3184'
p219
S'd1086-4'
p220
sS'fff7cc648deea0712f1cced9f01ee4b0_3268'
p221
S'fff7c-6'
p222
sS'fffae342dbd287cdda3c60217d5c7af0_3292'
p223
S'fffae-3'
p224
sS'4037115559746cfd5c865a9f713c2625_3148'
p225
S'40371-1'
p226
sS'b7e52b14dc1dfa001e3c28b217b104d0_3300'
p227
S'b7e52-11'
p228
sS'fff883c015ec1442c017f980a97db240_3184'
p229
S'fff88-2'
p230
sS'c55c1627f5bf9fc6d85ea6e8501dbf78_3128'
p231
S'c55c1-2'
p232
sS'11dbaa09f5b949c9d6e0db7e157cc860_3420'
p233
S'11dba-9'
p234
sS'11dbaa09f5b949c9d6e0db7e157cc860_3428'
p235
S'11dba-10'
p236
sS'11dbaa09f5b949c9d6e0db7e157cc860_3332'
p237
S'11dba-4'
p238
sS'ff7a21eeb7424837c2c938f6d55a4270_3192'
p239
S'ff7a2-1'
p240
sS'fffed8d8b8ccbd65f5ea16e54adb61d0_3188'
p241
S'fffed-4'
p242
sS'fff6e10b530975c473ec236a13cc71d0_3240'
p243
S'fff6e-6'
p244
sS'ffa8bc12b923db44b84bca677937c430_3308'
p245
S'ffa8b-1'
p246
sS'b7e52b14dc1dfa001e3c28b217b104d0_3232'
p247
S'b7e52-4'
p248
sS'bc7f15b89bbd891f95425abb4f3b8c30_3276'
p249
S'bc7f1-6'
p250
sS'a21ba6f7535b5d9728a16653a74efd00_3524'
p251
S'a21ba-10'
p252
sS'ff5c4dcbf4c85c6754e38eb59ebdb900_3176'
p253
S'ff5c4-1'
p254
sS'fff9cf19e4bdac2544dab9666417ced0_3160'
p255
S'fff9c-3'
p256
sS'fff70287c0a998781fbdee733b5ec0a0_3148'
p257
S'fff70-2'
p258
sS'ffe8daa35656d80307b04706461325a0_2872'
p259
S'ffe8d-2'
p260
sS'80cf51208fbee22191e5590038b0df80_3256'
p261
S'80cf5-8'
p262
sS'c121f821dc6853574777f3bdf6a68c5a_3116'
p263
S'c121f-1'
p264
sS'a2e80512b72f013c89ed2884d39e1eeb_3076'
p265
S'a2e80-1'
p266
sS'fffcec8eaf56d7890e175239f3d2f848_3308'
p267
S'fffce-2'
p268
sS'fff669f3bb3ec4c7ae6ad373cf42d2e0_3344'
p269
S'fff66-9'
p270
sS'5ee1ed1d1c3dbbb3e920e56229023080_3304'
p271
S'5ee1e-7'
p272
sS'fffee82e1db9ce0d11dc55bc54edbc30_3224'
p273
S'fffee-1'
p274
sS'0708a8bcda4a62e4eb87abcfb1b65860_3216'
p275
S'0708a-2'
p276
sS'25bc7a8af105eb9ac6feb54e16ae741f_3340'
p277
S'25bc7-1'
p278
sS'fff13d4438a35816bc11eca0f7ab0f10_3416'
p279
S'fff13-2'
p280
sS'518c227fc67926213502da39d8d44fd6_tmp_3432'
p281
S'518c2-9'
p282
sS'fff5bb964a0b4bb7fd49a3ac0e7a8930_3324'
p283
S'fff5b-2'
p284
sS'c55c1627f5bf9fc6d85ea6e8501dbf78_tmp_3280'
p285
S'c55c1-8'
p286
sS'fffe58da428a4b0a9d22f515cb549060_3160'
p287
S'fffe5-2'
p288
sS'fff85376c31aef03394672f4a066eb99_3208'
p289
S'fff85-3'
p290
sS'ffd3d94165be6d35d5b86af2f9e6d460_3260'
p291
S'ffd3d-1'
p292
sS'ffebbef1e1ac35be6e8bed7603dd6fc0_3224'
p293
S'ffebb-1'
p294
sS'ffe68bc360d090ab1cf3a3e02bd9a9b0_3284'
p295
S'ffe68-5'
p296
sS'2173f89db89fd55a2d92eb824cd6e4f4_2964'
p297
S'2173f-2'
p298
sS'ff8f940e547e834aa2538e5f99037930_3076'
p299
S'ff8f9-1'
p300
sS'225a739c4a77c0851f5486f6208ef5b7_3200'
p301
S'225a7-2'
p302
sS'fffe7736ffb6e14c4444690d95e47970_3148'
p303
S'fffe7-1'
p304
sS'1088046dcb34429d55d4695cf3b28301_3232'
p305
S'10880-1'
p306
sS'fff32641c5a62afa91aa2e03644eb6b0_3248'
p307
S'fff32-6'
p308
sS'ffe48b5a702ce1e7ea3c3851d56afe60_3224'
p309
S'ffe48-3'
p310
sS'd108622979a9586df24338f535b3f047_3228'
p311
S'd1086-3'
p312
sS'fffc62a185e4e5e048884d1cffc02ad0_3324'
p313
S'fffc6-2'
p314
sS'ffe68bc360d090ab1cf3a3e02bd9a9b0_3192'
p315
S'ffe68-1'
p316
sS'ffe68bc360d090ab1cf3a3e02bd9a9b0_3264'
p317
S'ffe68-3'
p318
sS'ff3b9aaae31199a5a4093000b06eb2bb_3272'
p319
S'ff3b9-2'
p320
sS'949304663e15ab1dcd9a0781b6d871d8_3148'
p321
S'94930-1'
p322
sS'ffe48b5a702ce1e7ea3c3851d56afe60_3316'
p323
S'ffe48-8'
p324
sS'3002038e55383b4e1d14abc7182a1e78_3236'
p325
S'30020-1'
p326
sS'fff80e5f4fa34da72941729445708e10_3324'
p327
S'fff80-12'
p328
sS'0eca924385c6183110cfb84e571c3e30_3204'
p329
S'0eca9-3'
p330
sS'337da6c8942095e6f1359325676f05ef_3380'
p331
S'337da-5'
p332
sS'fffadb73a29b91e53b98edf718d62860_3272'
p333
S'fffad-1'
p334
sS'0c494687e1a01a7e3eefc541f0a91d50_3216'
p335
S'0c494-7'
p336
sS'fff7de0a63e8793768d7c6b3583f7ce0_1544'
p337
S'fff7d-6'
p338
sS'ff9bedf941370ea1b831da82e5966fc0_3168'
p339
S'ff9be-2'
p340
sS'fffda772e9682b5cd713a1aff6bebe71_3376'
p341
S'fffda-15'
p342
sS'ff9ebac4576a079fb16d8e8fc022abf0_3160'
p343
S'ff9eb-1'
p344
sS'fff3acc5d4f9a2868c7b5427c2adc2b0_3332'
p345
S'fff3a-4'
p346
sS'fff43e34a6db391e3a579fc58609d860_3220'
p347
S'fff43-1'
p348
sS'55da555e75ab922f7dfcceb1209289b3_3116'
p349
S'55da5-2'
p350
sS'a4756d0fb104b86ec1c6cbbb23a2c45b_3260'
p351
S'a4756-2'
p352
sS'fffa1628aa653ee5c4f8a492c7c3f310_3240'
p353
S'fffa1-3'
p354
sS'a4756d0fb104b86ec1c6cbbb23a2c45b_3460'
p355
S'a4756-5'
p356
sS'fffe1e7b667a9ae17a22a0a9fe6f8f70_3456'
p357
S'fffe1-14'
p358
sS'fffaf4cd258eb7957e6931b5196fecf0_3188'
p359
S'fffaf-2'
p360
sS'd65cd3137858bb17f8b9b7fb0964815f_3128'
p361
S'd65cd-1'
p362
sS'fff7cf6ab07588c2344362421845e5a0_3204'
p363
S'fff7c-19'
p364
sS'ffdabec2455576fdce67e5bb7ee0e110_3260'
p365
S'ffdab-3'
p366
sS'fff0203b682aa62f1d93c7fbc37915f0_3324'
p367
S'fff02-11'
p368
sS'569db7273547dfb2a0e6016e166bf275_3188'
p369
S'569db-1'
p370
sS'fff8cb46c4a78741cf6727bb4ed09430_3064'
p371
S'fff8c-5'
p372
sS'fb9ad9b1c5a2e24a61735895690849a0_3264'
p373
S'fb9ad-2'
p374
sS'ff06bbc7b2a213ea39842904cfaa34c0_3172'
p375
S'ff06b-1'
p376
sS'ff99bc8be8b20ace4c6bcba08419bdc0_3272'
p377
S'ff99b-1'
p378
sS'ff7f8baf043c1179fcd89747282d9330_3128'
p379
S'ff7f8-1'
p380
sS'324ed762499093ef9cd82d8e346070dc_3088'
p381
S'324ed-1'
p382
sS'fff7cc648deea0712f1cced9f01ee4b0_3224'
p383
S'fff7c-3'
p384
sS'fff80ea0a648bee1b571b35dbaf37b60_3212'
p385
S'fff80-14'
p386
sS'd695c2c7d9718238bd95b354a147c775_tmp_3152'
p387
S'd695c-4'
p388
sS'ffa0d04851d3077ea7e983f80e3b12a0_3248'
p389
S'ffa0d-1'
p390
sS'2272d05b959f133bcf3e38c48ddbfcad_3256'
p391
S'2272d-2'
p392
sS'fff7cc648deea0712f1cced9f01ee4b0_3492'
p393
S'fff7c-14'
p394
sS'ffd8da9c3e0385e9be7c62559b116780_3188'
p395
S'ffd8d-1'
p396
sS'ffef83688d9f82b9a5c4aad39284b100_3176'
p397
S'ffef8-2'
p398
sS'ffda81db1b4cfcd30ba3e07c0ccbd1c0_3008'
p399
S'ffda8-5'
p400
sS'fffd2b0794728faec8140e0106c15430_3296'
p401
S'fffd2-3'
p402
sS'ffda81db1b4cfcd30ba3e07c0ccbd1c0_3000'
p403
S'ffda8-4'
p404
sS'fb9ad9b1c5a2e24a61735895690849a0_3288'
p405
S'fb9ad-3'
p406
sS'ff6dfa13a4a0671a711c27123b3651b0_3096'
p407
S'ff6df-1'
p408
sS'ffe45216ee1d537dadf7ecdce88d0410_3056'
p409
S'ffe45-1'
p410
sS'bca992f77cb48afc06c28461c83403a0_3192'
p411
S'bca99-1'
p412
sS'ffd3d94165be6d35d5b86af2f9e6d460_IE_3308'
p413
S'ffd3d-2'
p414
sS'fffade5b1d5c9ef6d48e91e8dbe3e9b0_3256'
p415
S'fffad-3'
p416
sS'b55664cd1314cae5a3172a147c446a67_3212'
p417
S'b5566-2'
p418
sS'5ee1ed1d1c3dbbb3e920e56229023080_3244'
p419
S'5ee1e-2'
p420
sS'bfa7aeec7e86b1880ef8b36dab550b30_3180'
p421
S'bfa7a-2'
p422
sS'fff998bf1055d43e31a968e10be937c0_3144'
p423
S'fff99-1'
p424
sS'560ed485d9b62ad9632b8d7d20b266ce_3180'
p425
S'560ed-1'
p426
sS'ffe6ff3bc571034e680d824eb9f97670_3196'
p427
S'ffe6f-1'
p428
sS'11dbaa09f5b949c9d6e0db7e157cc860_3320'
p429
S'11dba-3'
p430
sS'4c2fa9b613705185f9a0ad3e2f640d70_3232'
p431
S'4c2fa-1'
p432
sS'fff6e10b530975c473ec236a13cc71d0_3252'
p433
S'fff6e-7'
p434
sS'84bc4455b4ecc97a6e95241beb6cd2f5_3144'
p435
S'84bc4-1'
p436
sS'b7e52b14dc1dfa001e3c28b217b104d0_3332'
p437
S'b7e52-14'
p438
sS'ffe63d41ff66a0dfe31762471171f950_3232'
p439
S'ffe63-6'
p440
sS'ffe268ffc185abe5b68970e45eb74810_3192'
p441
S'ffe26-1'
p442
sS'bc7f15b89bbd891f95425abb4f3b8c30_3284'
p443
S'bc7f1-7'
p444
sS'b7e52b14dc1dfa001e3c28b217b104d0_3208'
p445
S'b7e52-2'
p446
sS'27546542eea38e818e2ac51d4ec9775f_3252'
p447
S'27546-1'
p448
sS'ffdc253045d08a1496d52fb26aeab730_3348'
p449
S'ffdc2-3'
p450
sS'317624f2903ffa72ac040e87e36f1645_3088'
p451
S'31762-1'
p452
sS'b8abfe0cdaa114673be832b00fa18750_3220'
p453
S'b8abf-2'
p454
sS'80cf51208fbee22191e5590038b0df80_3240'
p455
S'80cf5-7'
p456
sS'ffdc253045d08a1496d52fb26aeab730_3340'
p457
S'ffdc2-2'
p458
sS'225a739c4a77c0851f5486f6208ef5b7_3148'
p459
S'225a7-1'
p460
sS'fff955354004674f27398a34e4490580_3140'
p461
S'fff95-1'
p462
sS'1037b8385f3eb7f7ed6cbdf4251b5fa2_3172'
p463
S'1037b-1'
p464
sS'fff751922a607ed0888f9d23819cb4c0_3244'
p465
S'fff75-3'
p466
sS'51b69c710ade0340e86daf70c8a07e12_3176'
p467
S'51b69-1'
p468
sS'fffbd41c1e9cc8311f946cc03b019797_3216'
p469
S'fffbd-2'
p470
sS'81c2d13624f473c10f9866dee8ce79fb_3132'
p471
S'81c2d-1'
p472
sS'fff0136bfce93599273dd39c4149d1d0_3160'
p473
S'fff01-1'
p474
sS'ffeaa3f8551c1bbd77d39668e7690e70_3160'
p475
S'ffeaa-1'
p476
sS'fffe962a0aba7faf4a217f499a43bbf2_3188'
p477
S'fffe9-3'
p478
sS'fff351ad66140a5e49eb323c4bf53700_3152'
p479
S'fff35-1'
p480
sS'ffeaedd146b09f7434bffcf58d60ad20_2900'
p481
S'ffeae-2'
p482
sS'fffe479efcbd806659b255d33b17c290_3068'
p483
S'fffe4-1'
p484
sS'ffe130eb566eeb7299eb07f1d84ce720_3152'
p485
S'ffe13-1'
p486
sS'ffe5a16e686d28ccc0d53059d24bf370_3204'
p487
S'ffe5a-1'
p488
sS'ffe366091ff5a15e50d1f31734025e80_3204'
p489
S'ffe36-1'
p490
sS'84870116484818d0428a2303dabdd37b_3216'
p491
S'84870-2'
p492
sS'ffee8d06eee21667a97ea0a7915c5720_3184'
p493
S'ffee8-3'
p494
sS'ffff948db69f1d5369a5f01462b40030_3084'
p495
S'ffff9-4'
p496
sS'fffb9e4cb8536f28edff14b0674e1da0_3200'
p497
S'fffb9-2'
p498
sS'ff2039e456c6829a801b9dd8e2f68180_3232'
p499
S'ff203-1'
p500
sS'0c494687e1a01a7e3eefc541f0a91d50_3196'
p501
S'0c494-5'
p502
sS'512fe4ffc612470c04c57b501c8a7828_3188'
p503
S'512fe-1'
p504
sS'52cd8c9cc8c4e794e9243d787853f556_tmp_3284'
p505
S'52cd8-9'
p506
sS'fffb4b1134fac1215a52741c00ca8a40_3208'
p507
S'fffb4-9'
p508
sS'3429dc19d8d5f100f3d3fe403cc72726_3152'
p509
S'3429d-1'
p510
sS'ffe68bc360d090ab1cf3a3e02bd9a9b0_3276'
p511
S'ffe68-4'
p512
sS'ffdb3c00f7cc7c25f8240eed3a1d4a50_2804'
p513
S'ffdb3-2'
p514
sS'fff850f5b60617e3a9bcda5c4af4c9a0_3176'
p515
S'fff85-1'
p516
sS'ffe1fe154779646187f07b8bb45d2bb0_3224'
p517
S'ffe1f-1'
p518
sS'fffc4faedbf0a97b03f1ec4c4f277fe0_3096'
p519
S'fffc4-4'
p520
sS'51c2c4afe76bcd179ba83619b4840c71_3120'
p521
S'51c2c-1'
p522
sS'82281825ed1452977a764643428d9976_3176'
p523
S'82281-1'
p524
sS'fff80e5f4fa34da72941729445708e10_3316'
p525
S'fff80-11'
p526
sS'0eca924385c6183110cfb84e571c3e30_3216'
p527
S'0eca9-4'
p528
sS'ff9bedf941370ea1b831da82e5966fc0_3152'
p529
S'ff9be-1'
p530
sS'fff13d4438a35816bc11eca0f7ab0f10_3112'
p531
S'fff13-1'
p532
sS'b0600327e25557f457e477594e3684e6_3016'
p533
S'b0600-1'
p534
sS'ffb70cc95d05b27f11ff686643cf10d0_3096'
p535
S'ffb70-1'
p536
sS'ff5e809cbdc79c303afe3097619f6a80_3120'
p537
S'ff5e8-1'
p538
sS'a13302780b76aa7f678c83052e1f80f5_3124'
p539
S'a1330-1'
p540
sS'fffcbf80030d13aa96db143dd9a8e5e0_3176'
p541
S'fffcb-4'
p542
sS'fffb7db0b4b343eba03ec29ff81410b0_3240'
p543
S'fffb7-3'
p544
sS'ffff14b75aff6098a07c30d75a4deae0_3156'
p545
S'ffff1-3'
p546
sS'fff8df176184edc60804f17e75d3e440_3120'
p547
S'fff8d-1'
p548
sS'ff288a93c8e729993f0003d164b00460_3204'
p549
S'ff288-1'
p550
sS'ffdc6723378552db0950b244ede670c0_3268'
p551
S'ffdc6-1'
p552
sS'd108622979a9586df24338f535b3f047_3160'
p553
S'd1086-1'
p554
sS'ffffcf6d4f65461b7f08106aabb1cc80_3152'
p555
S'ffffc-1'
p556
sS'0c494687e1a01a7e3eefc541f0a91d50_3228'
p557
S'0c494-8'
p558
sS'fffe1e7b667a9ae17a22a0a9fe6f8f70_3440'
p559
S'fffe1-13'
p560
sS'9e7130b93eec895537ee9b9561c3b780_3252'
p561
S'9e713-2'
p562
sS'31b164b4dc1d2744bf11183604572648_3436'
p563
S'31b16-5'
p564
sS'ff14cc094799b3026670686af64d7b60_3180'
p565
S'ff14c-1'
p566
sS'2b0d1f7527e0191f190744e8a1e319c3_tmp_2944'
p567
S'2b0d1-7'
p568
sS'fff0203b682aa62f1d93c7fbc37915f0_3260'
p569
S'fff02-8'
p570
sS'ff88e8ec4862285d3cae147a39957740_2960'
p571
S'ff88e-2'
p572
sS'ffe5289f932e53d8a4871d8a6f7714f0_3224'
p573
S'ffe52-1'
p574
sS'a4756d0fb104b86ec1c6cbbb23a2c45b_tmp_3340'
p575
S'a4756-7'
p576
sS'fff9a19ff2bd98fddc4e81f63c99a09b_3092'
p577
S'fff9a-1'
p578
sS'a21ba6f7535b5d9728a16653a74efd00_3408'
p579
S'a21ba-5'
p580
sS'd15a3109da6635b766b2e7e2a3974f7e_3252'
p581
S'd15a3-1'
p582
sS'fff832b43dd3c9801399fa092c6148e0_3136'
p583
S'fff83-4'
p584
sS'fffd7b7f3dde2d0bc0b20cb5d0d52740_3264'
p585
S'fffd7-1'
p586
sS'fff848a7dd117f164e9ebf6ec0c6e40f_3260'
p587
S'fff84-3'
p588
sS'fff1a3306e69df859b43e71cc2671f00_3224'
p589
S'fff1a-1'
p590
sS'fff6cf061b8f8594b648e61616e9a3e0_3216'
p591
S'fff6c-7'
p592
sS'fff04a44b4d3b6298f4012bde3f29e90_3248'
p593
S'fff04-2'
p594
sS'fffed384aeba28e1474467058b4756a0_3228'
p595
S'fffed-1'
p596
sS'fff66f9bc1de77487773946af8b7ac00_3132'
p597
S'fff66-11'
p598
sS'b55664cd1314cae5a3172a147c446a67_3192'
p599
S'b5566-1'
p600
sS'fff80ae9338aec1e979ad1ddeb060560_3280'
p601
S'fff80-2'
p602
sS'ffe3854f6b135356e619680964df8790_3196'
p603
S'ffe38-1'
p604
sS'fff23debf787362e563e5c9b90b1bbf0_3112'
p605
S'fff23-3'
p606
sS'ffff8f3a39da15df06e61f4f1180ded0_3240'
p607
S'ffff8-7'
p608
sS'ffeea9b553453bb1c1e29612d6d30890_3148'
p609
S'ffeea-1'
p610
sS'0278192ce1aa7f8c4ae746eae73e6475_3204'
p611
S'02781-1'
p612
sS'fff72f1fc3b01a0e09c786b8f69a2a60_3184'
p613
S'fff72-2'
p614
sS'a1565742cfdebc0d7b21f2dba34a4c5c_3212'
p615
S'a1565-1'
p616
sS'fff42fb25c1242e0b81dbdd175029ee0_3164'
p617
S'fff42-3'
p618
sS'ffe9bdfbe933f14cf930330cf983ff30_3176'
p619
S'ffe9b-1'
p620
sS'ffe7401885ef9576652a8274d7a93740_3404'
p621
S'ffe74-2'
p622
sS'ff67c3d4ea5e9093d067dad5c32a3d4e_3280'
p623
S'ff67c-1'
p624
sS'5ee1ed1d1c3dbbb3e920e56229023080_3252'
p625
S'5ee1e-3'
p626
sS'ffff90de328dc28095d7610c18b20130_3368'
p627
S'ffff9-2'
p628
sS'fff86a9c3eac29a3f5361a05cb919190_3076'
p629
S'fff86-4'
p630
sS'fff409baa0c3e0516e3bcacdb33bb1f0_3192'
p631
S'fff40-2'
p632
sS'fffb80ab22a7a992891c7ddb48b99e90_3236'
p633
S'fffb8-1'
p634
sS'2173f89db89fd55a2d92eb824cd6e4f4_3020'
p635
S'2173f-3'
p636
sS'6aec05263229f2dacd5425863a7d81f0_3104'
p637
S'6aec0-2'
p638
sS'd1441c9c8de5c7f597fa7e2f1f7f222a_3240'
p639
S'd1441-1'
p640
sS'518c227fc67926213502da39d8d44fd6_3184'
p641
S'518c2-1'
p642
sS'd5229b1ba9ac805a1e7c0b871bd1eb96_3072'
p643
S'd5229-1'
p644
sS'ffe966a583476ed1e15048c3d4d2d2e0_3212'
p645
S'ffe96-1'
p646
sS'ff04e0b5d1f9b3e2fb8473c128f562f0_3188'
p647
S'ff04e-1'
p648
sS'5ee1ed1d1c3dbbb3e920e56229023080_3436'
p649
S'5ee1e-9'
p650
sS'fffcb69168b0a0050fb540814832a1b0_3192'
p651
S'fffcb-3'
p652
sS'11dbaa09f5b949c9d6e0db7e157cc860_3356'
p653
S'11dba-5'
p654
sS'b7e52b14dc1dfa001e3c28b217b104d0_3324'
p655
S'b7e52-13'
p656
sS'2ab814305cf1db748057a4bc313fb503_3160'
p657
S'2ab81-1'
p658
sS'fff7cc648deea0712f1cced9f01ee4b0_3512'
p659
S'fff7c-15'
p660
sS'31031b0783dea6906977abae83ab022d_3316'
p661
S'31031-3'
p662
sS'ffffe6d994ccdda98a35b522cc720760_3172'
p663
S'ffffe-1'
p664
sS'337da6c8942095e6f1359325676f05ef_tmp_3312'
p665
S'337da-7'
p666
sS'0708a8bcda4a62e4eb87abcfb1b65860_3344'
p667
S'0708a-7'
p668
sS'fffd07b5d72ac9ce26a9bdba14c4d8a0_3160'
p669
S'fffd0-1'
p670
sS'82cf1e67ed155da7e89fc4f49b97050d_3288'
p671
S'82cf1-2'
p672
sS'ff0a16b63aaaf7324b0da9218fe4ea20_3172'
p673
S'ff0a1-1'
p674
sS'bc7f15b89bbd891f95425abb4f3b8c30_3292'
p675
S'bc7f1-8'
p676
sS'80cf51208fbee22191e5590038b0df80_3232'
p677
S'80cf5-6'
p678
sS'241d19df78ba083825ad379426fc7a5c_3076'
p679
S'241d1-1'
p680
sS'fff7114f8973a2ab18c6310d69fd6cf0_3108'
p681
S'fff71-1'
p682
sS'fff814e9c22276c8ffc7c81c520f4d10_3272'
p683
S'fff81-1'
p684
sS'fffee82e1db9ce0d11dc55bc54edbc30_3240'
p685
S'fffee-2'
p686
sS'fffe1e7b667a9ae17a22a0a9fe6f8f70_3300'
p687
S'fffe1-3'
p688
sS'fff72f1fc3b01a0e09c786b8f69a2a60_3256'
p689
S'fff72-3'
p690
sS'fffb352f7508b52b6d8835d29dda8790_3184'
p691
S'fffb3-1'
p692
sS'6a88610e02a850b0ee5b05b24ae87de0_3268'
p693
S'6a886-1'
p694
sS'fff66291d228792b04ae9f52650c5b80_3176'
p695
S'fff66-3'
p696
sS'fffc41cf4ff1122e1cdd0e07b3c9ce00_3024'
p697
S'fffc4-1'
p698
sS'0eca924385c6183110cfb84e571c3e30_3176'
p699
S'0eca9-1'
p700
sS'ffef875bf562e66219a808f925ac3340_3120'
p701
S'ffef8-3'
p702
sS'811c47bd9f7347318794f59a8230c180_3268'
p703
S'811c4-1'
p704
sS'ffefbd576b730687e9bf56de777a2330_3240'
p705
S'ffefb-1'
p706
sS'ffde0af6312a773159ae186a4e747bc0_3312'
p707
S'ffde0-1'
p708
sS'a4756d0fb104b86ec1c6cbbb23a2c45b_tmp_3244'
p709
S'a4756-6'
p710
sS'fff47004caa5598f4b98907239d45120_424'
p711
S'fff47-4'
p712
sS'ff2ffb3906d41b5c38149b65e4ff2870_3144'
p713
S'ff2ff-1'
p714
sS'e44b45e4d029c1c5257ce2365b797d20_3216'
p715
S'e44b4-1'
p716
sS'ffe366091ff5a15e50d1f31734025e80_3232'
p717
S'ffe36-2'
p718
sS'a2593ed0e66611da58ad2fcdca426cdb_3208'
p719
S'a2593-2'
p720
sS'fff71cb8da44b471b448dad8d3c1ac20_3140'
p721
S'fff71-3'
p722
sS'a1cad6bf3bc2ed6329e98691ca0822d8_3304'
p723
S'a1cad-1'
p724
sS'309985e32deb3b6a2b548cef840701f5_3184'
p725
S'30998-1'
p726
sS'c1f844e0d2a6b7fdeddc9d6758a1e499_3244'
p727
S'c1f84-3'
p728
sS'ffe268ffc185abe5b68970e45eb74810_IE_3260'
p729
S'ffe26-3'
p730
sS'ffe48b5a702ce1e7ea3c3851d56afe60_3488'
p731
S'ffe48-16'
p732
sS'fff7be1ac8374609b43e093e4c30fb9e_3176'
p733
S'fff7b-2'
p734
sS'ff58f2eff81622cfde34962634c2b6d0_3152'
p735
S'ff58f-2'
p736
sS'b5a875aee144f95bcefcdb7f6daea440_3224'
p737
S'b5a87-1'
p738
sS'ff93d98dcbb9e143b3652ad10c1892b0_2044'
p739
S'ff93d-1'
p740
sS'b23a2d27c1a90d5e4030688e934c0a50_3348'
p741
S'b23a2-2'
p742
sS'0eca924385c6183110cfb84e571c3e30_3196'
p743
S'0eca9-2'
p744
sS'fffda772e9682b5cd713a1aff6bebe71_3172'
p745
S'fffda-2'
p746
sS'ee585bcbf539549334892afd674a6e10_3280'
p747
S'ee585-2'
p748
sS'0c494687e1a01a7e3eefc541f0a91d50_3184'
p749
S'0c494-4'
p750
sS'ffdb3c00f7cc7c25f8240eed3a1d4a50_2924'
p751
S'ffdb3-7'
p752
sS'20f246783e49bd5d1d7d90662e97a9e9_3252'
p753
S'20f24-1'
p754
sS'ffe48b5a702ce1e7ea3c3851d56afe60_3244'
p755
S'ffe48-4'
p756
sS'fffb7b874861bc231f9405fca8549e50_3128'
p757
S'fffb7-1'
p758
sS'fff80e5f4fa34da72941729445708e10_3304'
p759
S'fff80-10'
p760
sS'fffc84bb695f8ba7c7164ef9c69ba480_3260'
p761
S'fffc8-4'
p762
sS'ffe68bc360d090ab1cf3a3e02bd9a9b0_3248'
p763
S'ffe68-2'
p764
sS'329a5855e90638c7d25c6a1265d1d74f_3168'
p765
S'329a5-1'
p766
sS'ffdfa9b9d02e87e0566d2648f5f657a0_3240'
p767
S'ffdfa-4'
p768
sS'ffff1be4d584f5e0fc92efcfe1ce04f0_3044'
p769
S'ffff1-6'
p770
sS'ffe8f911ccf4264ea28fdc093275d970_3156'
p771
S'ffe8f-1'
p772
sS'b7e52b14dc1dfa001e3c28b217b104d0_3464'
p773
S'b7e52-18'
p774
sS'a4b8c9fbbc6c509fe9c1733141e611d7_3220'
p775
S'a4b8c-1'
p776
sS'fffda772e9682b5cd713a1aff6bebe71_3356'
p777
S'fffda-13'
p778
sS'b81120889b5fe4e7b0080e7c5c0413f0_3172'
p779
S'b8112-4'
p780
sS'f582a3a186b1d86871efbb7e6e592210_3208'
p781
S'f582a-1'
p782
sS'ffe130eb566eeb7299eb07f1d84ce720_3216'
p783
S'ffe13-2'
p784
sS'fffd28bc956b4adf388e1550d51a60f0_3080'
p785
S'fffd2-1'
p786
sS'fffc91e1c05b35b4933e2b7d4d5de4f0_3084'
p787
S'fffc9-1'
p788
sS'ffdbf17dfd72021badc8dbc22b186340_3308'
p789
S'ffdbf-1'
p790
sS'd108622979a9586df24338f535b3f047_3196'
p791
S'd1086-2'
p792
sS'fffe1e7b667a9ae17a22a0a9fe6f8f70_3476'
p793
S'fffe1-15'
p794
sS'fff0203b682aa62f1d93c7fbc37915f0_3308'
p795
S'fff02-10'
p796
sS'fffe1e7b667a9ae17a22a0a9fe6f8f70_3328'
p797
S'fffe1-5'
p798
sS'fffd3992a840bdd03383a6b0503d25f0_3168'
p799
S'fffd3-1'
p800
sS'31b164b4dc1d2744bf11183604572648_3244'
p801
S'31b16-2'
p802
sS'ffffd54d3b0a384dda9a05fe6a18ca40_3196'
p803
S'ffffd-1'
p804
sS'fffae4c57b7263c91ffb0b6e057d05b0_3132'
p805
S'fffae-7'
p806
sS'fffda772e9682b5cd713a1aff6bebe71_3332'
p807
S'fffda-11'
p808
sS'93c213c3c09cfaf1de11b23469071368_3208'
p809
S'93c21-1'
p810
sS'305303294ae289f97ceacc37112afcba_3072'
p811
S'30530-1'
p812
sS'fff7d4547f7b2193e05dde7e3619aaa0_3216'
p813
S'fff7d-2'
p814
sS'52149c30b1c49a7a5a6a9e119b999715_3208'
p815
S'52149-1'
p816
sS'52cd8c9cc8c4e794e9243d787853f556_tmp_3184'
p817
S'52cd8-7'
p818
sS'ffe5eaa82debc744b9c9c900fa22bc70_3148'
p819
S'ffe5e-6'
p820
sS'fff848a7dd117f164e9ebf6ec0c6e40f_3216'
p821
S'fff84-2'
p822
sS'fff2a3b4ac499c3eb13e682855cbf6a0_3268'
p823
S'fff2a-3'
p824
sS'1000511f9f867a3ee51cb91e7d922e99_3256'
p825
S'10005-1'
p826
sS'29fa30bb9dd612507b28bf4ec36f0372_3132'
p827
S'29fa3-1'
p828
sS'fff8ca54b676951797bf85324d808510_3156'
p829
S'fff8c-2'
p830
sS'ffebbef1e1ac35be6e8bed7603dd6fc0_malUsr_3236'
p831
S'ffebb-2'
p832
sS'90489a23cb732ae082adf3def0b5d243_3272'
p833
S'90489-2'
p834
sS'fff9d6382dc02b87e0b9f60d1702ce70_3104'
p835
S'fff9d-1'
p836
sS'd6e0cbadf6d62c8fc034954878bdf7b6_3208'
p837
S'd6e0c-2'
p838
sS'ff7d9fd739344bfcd6286eb0ef81f840_3300'
p839
S'ff7d9-1'
p840
sS'fff9f7ade4c09ec113b33891ad77cea0_3184'
p841
S'fff9f-1'
p842
sS'5ee1ed1d1c3dbbb3e920e56229023080_3220'
p843
S'5ee1e-1'
p844
sS'ffc448c85b4c795cfecada127914fba0_3232'
p845
S'ffc44-1'
p846
sS'fff6e10b530975c473ec236a13cc71d0_3388'
p847
S'fff6e-14'
p848
sS'ffe1474af9875bfc9af472c07453ab20_3340'
p849
S'ffe14-1'
p850
sS'fff0203b682aa62f1d93c7fbc37915f0_3452'
p851
S'fff02-16'
p852
sS'fff6cd7b2778385fac142cb0df6999b0_3184'
p853
S'fff6c-5'
p854
sS'5170d63bcfe818f0cbbdb0ea5f11726f_3304'
p855
S'5170d-1'
p856
sS'fffdd6746dd4a907d0c9dba435e67de0_3236'
p857
S'fffdd-1'
p858
sS'ffa6bea7546a214739123cf9c012d140_3160'
p859
S'ffa6b-1'
p860
sS'fff7dcb3463f5f99f158b0485113b850_3064'
p861
S'fff7d-5'
p862
sS'b55664cd1314cae5a3172a147c446a67_3232'
p863
S'b5566-3'
p864
sS'fffb0ff60b61c324d1336bd68b022a10_3096'
p865
S'fffb0-2'
p866
sS'fff4da9bbddba31b184e9d09a5781860_3208'
p867
S'fff4d-1'
p868
sS'fffcf1e3dff8080511765071b56694b0_3220'
p869
S'fffcf-1'
p870
sS'fff8270784493de20e155fc696c83790_3136'
p871
S'fff82-1'
p872
sS'fff3a2919a37137a1db39043f613ffd0_3220'
p873
S'fff3a-1'
p874
sS'27546542eea38e818e2ac51d4ec9775f_3304'
p875
S'27546-2'
p876
sS'fff3a2919a37137a1db39043f613ffd0_3228'
p877
S'fff3a-2'
p878
sS'b8abfe0cdaa114673be832b00fa18750_3200'
p879
S'b8abf-1'
p880
sS'fff85f7d64eba8530c3ead00f08d5f60_3100'
p881
S'fff85-7'
p882
sS'b7e52b14dc1dfa001e3c28b217b104d0_3264'
p883
S'b7e52-7'
p884
sS'fff87d7175547eafe1ace02e633f4cb0_3100'
p885
S'fff87-2'
p886
sS'd9096fae58f73355e0da673d8715c210_3096'
p887
S'd9096-1'
p888
sS'd3073b32b203148082cc15ec46f5105f_3156'
p889
S'd3073-1'
p890
sS'fffe1e7b667a9ae17a22a0a9fe6f8f70_3268'
p891
S'fffe1-1'
p892
sS'32abc951d6c707d2036c9e2a50e5fcb6_2808'
p893
S'32abc-1'
p894
sS'80cf51208fbee22191e5590038b0df80_3220'
p895
S'80cf5-5'
p896
sS'4c73c216e72a1ec198cd99f4ee96d2d0_3436'
p897
S'4c73c-13'
p898
sS'81c2d13624f473c10f9866dee8ce79fb_3172'
p899
S'81c2d-2'
p900
sS'fffa18cd310850599110aba64d23ff20_3076'
p901
S'fffa1-4'
p902
sS'fff751922a607ed0888f9d23819cb4c0_3268'
p903
S'fff75-4'
p904
sS'ffe4bf55c6b7207fa896cd1d50220000_3032'
p905
S'ffe4b-1'
p906
sS'ffe567f1bef57fbef02d9447c5ea66a0_3252'
p907
S'ffe56-2'
p908
sS'23377b24ad28def0c5954adcf74a8a05_3416'
p909
S'23377-3'
p910
sS'feffaf0e1f17bef7be07d10b0083fd80_3096'
p911
S'feffa-2'
p912
sS'33b0342851a544405b68e3f957499c13_3156'
p913
S'33b03-1'
p914
sS'ffe359f7d77101aaabb92b8ef5f70e90_3056'
p915
S'ffe35-1'
p916
sS'fffe1e7b667a9ae17a22a0a9fe6f8f70_3316'
p917
S'fffe1-4'
p918
sS'5169113d8207a5605ff57604a00c030a_tmp_3008'
p919
S'51691-8'
p920
sS'fff97fa9c69822761a69a8dd13219200_3124'
p921
S'fff97-2'
p922
sS'ffff9f2597c9a2a24bb11380d4f071a0_3164'
p923
S'ffff9-5'
p924
sS'ffef875bf562e66219a808f925ac3340_3204'
p925
S'ffef8-4'
p926
sS'fffe4c7c2a714c4484de8a38564d76f0_3128'
p927
S'fffe4-2'
p928
sS'ff8a037e0876d992083b897e1d89d4c0_3284'
p929
S'ff8a0-1'
p930
sS'fffa14684ec37491be14e18c73ffeb80_2832'
p931
S'fffa1-2'
p932
sS'ffdbffa7d1062d59f213c332adcfa1a0_3212'
p933
S'ffdbf-2'
p934
sS'807090991f3da3c1132f2b5dec7511a3_3220'
p935
S'80709-1'
p936
sS'ff06cc7bc318d095aaba4a9972f86950_3284'
p937
S'ff06c-2'
p938
sS'ffff2915f8f4ae0b7de3cbbd88dd3a40_2932'
p939
S'ffff2-3'
p940
sS'ff4619b80837fe59a100178db8293090_3240'
p941
S'ff461-2'
p942
sS'fff751922a607ed0888f9d23819cb4c0_3288'
p943
S'fff75-5'
p944
sS'4c73c216e72a1ec198cd99f4ee96d2d0_3328'
p945
S'4c73c-11'
p946
sS'b81120889b5fe4e7b0080e7c5c0413f0_3184'
p947
S'b8112-5'
p948
sS'8da7b6c67ebb14f9881ec0a6bba2dd10_3188'
p949
S'8da7b-2'
p950
sS'fffd3b594cfc4e6d8299d3eb9b3f9aa0_3252'
p951
S'fffd3-4'
p952
sS'fff965a09a5139aaacb3c3b7a9567700_3252'
p953
S'fff96-1'
p954
sS'fff844052a02c1667be3c939a69402e0_3092'
p955
S'fff84-1'
p956
sS'd287f3dc57fd03a527747396a3a901b5_3276'
p957
S'd287f-1'
p958
sS'ffd943688ce0ecff9db95bd8aea81d20_3148'
p959
S'ffd94-1'
p960
sS'03c009b451e012002513513a5d7e1b00_3300'
p961
S'03c00-1'
p962
sS'ffe634543a6589f670653ee17dd2a3d0_3236'
p963
S'ffe63-4'
p964
sS'ffe9c75a5298da0e3359ffe12b7b7d50_3184'
p965
S'ffe9c-2'
p966
sS'ffdf4486b541b3afff70ee8c317249c0_3112'
p967
S'ffdf4-1'
p968
sS'518c227fc67926213502da39d8d44fd6_tmp_3372'
p969
S'518c2-8'
p970
sS'3002038e55383b4e1d14abc7182a1e78_3260'
p971
S'30020-2'
p972
sS'ffe45216ee1d537dadf7ecdce88d0410_3072'
p973
S'ffe45-2'
p974
sS'fff7f933198657aa3031e99c8dae1330_3176'
p975
S'fff7f-1'
p976
sS'fff1cb255d93505b51bf2daba50a09f0_3164'
p977
S'fff1c-1'
p978
sS'fffe1e7b667a9ae17a22a0a9fe6f8f70_3500'
p979
S'fffe1-16'
p980
sS'ffe91510f165d479db6492d973ade310_3156'
p981
S'ffe91-1'
p982
sS'fff85adcd725d5b05fe825fd67f22ae0_3176'
p983
S'fff85-6'
p984
sS'a0f2e27b28835c96377b73b007c09f15_3220'
p985
S'a0f2e-2'
p986
sS'80818bc6491f5ec1b58d2058ba24fb44_3284'
p987
S'80818-1'
p988
sS'd5aafe1af9449d87262a5016f0993d99_3180'
p989
S'd5aaf-1'
p990
sS'fff24ec818613a1a77cbf043e9ea9100_3172'
p991
S'fff24-2'
p992
sS'fff4b3ffca949b16fae8f1d97ca6bc50_3184'
p993
S'fff4b-1'
p994
sS'27f348177560314182f161d9ee90b999_3188'
p995
S'27f34-2'
p996
sS'ffe48b5a702ce1e7ea3c3851d56afe60_3296'
p997
S'ffe48-7'
p998
sS'b768c2760776c66dfed69d4ea0b60d1c_3184'
p999
S'b768c-1'
p1000
sS'fff8603f33601b77f871e492bc6dc110_3080'
p1001
S'fff86-2'
p1002
sS'ffc1cf1575c5dfa972cbfe0b5472ef30_3128'
p1003
S'ffc1c-2'
p1004
sS'930bc9f36310286d105c318a96264eba_336'
p1005
S'930bc-2'
p1006
sS'ffdfa9b9d02e87e0566d2648f5f657a0_3292'
p1007
S'ffdfa-7'
p1008
sS'518c227fc67926213502da39d8d44fd6_tmp_3316'
p1009
S'518c2-7'
p1010
sS'fffb55b518293a137367a562cf68b500_3112'
p1011
S'fffb5-1'
p1012
sS'a49ab036c70167ff9894e142cfd279aa_3280'
p1013
S'a49ab-1'
p1014
sS'ffff66f163b13d50c640303d7db31350_3104'
p1015
S'ffff6-4'
p1016
sS'fff0203b682aa62f1d93c7fbc37915f0_3196'
p1017
S'fff02-4'
p1018
sS'fff80ae9338aec1e979ad1ddeb060560_tmp_3288'
p1019
S'fff80-3'
p1020
sS'ff0cf4a881970603c9b4b078ed996f30_3240'
p1021
S'ff0cf-1'
p1022
sS'ffe14960c4c31b49c15eeeb9a0ad7ef0_3272'
p1023
S'ffe14-2'
p1024
sS'ffff5099125bceaea61251684fbdb770_3220'
p1025
S'ffff5-1'
p1026
sS'fff7cc648deea0712f1cced9f01ee4b0_3192'
p1027
S'fff7c-2'
p1028
sS'fff6964a2a504ad8dd988866158f4bb0_3032'
p1029
S'fff69-1'
p1030
sS'fff7cf6ab07588c2344362421845e5a0_3188'
p1031
S'fff7c-17'
p1032
sS'2b0d1f7527e0191f190744e8a1e319c3_tmp_2988'
p1033
S'2b0d1-8'
p1034
sS'819cf75b209768d2083ee84059ec294f_3224'
p1035
S'819cf-2'
p1036
sS'61fd4cac9f5429d14d015e7632e3514a_3284'
p1037
S'61fd4-2'
p1038
sS'fff33ec06676fdc6e9a17a41b3f9ff00_IE_3196'
p1039
S'fff33-6'
p1040
sS'ffd09e4999f9710f576ae36dfe3ec880_3216'
p1041
S'ffd09-1'
p1042
sS'50ba51bc86d689f324d7ca27d0a7eb52_3296'
p1043
S'50ba5-1'
p1044
sS'ffea75b723b91f1472a62ee9143c4ad0_3192'
p1045
S'ffea7-1'
p1046
sS'ffff2a37e92c2ae42c5b8230c1c0c8e0_3164'
p1047
S'ffff2-7'
p1048
sS'ff49070f3cdbb20213808329b1f9ef70_3228'
p1049
S'ff490-1'
p1050
sS'fff094c9a2e1133bb888840dbe5bad00_3824'
p1051
S'fff09-3'
p1052
sS'fffb228285a7c34485b49cb9482193e0_3132'
p1053
S'fffb2-1'
p1054
sS'ffff13e167e31c3e1334610ac33c7620_3088'
p1055
S'ffff1-1'
p1056
sS'af1dbfe9ee4bfb4e7b93d43005ba23e4_3220'
p1057
S'af1db-1'
p1058
sS'23377b24ad28def0c5954adcf74a8a05_3368'
p1059
S'23377-2'
p1060
sS'fff68302e4ad8396fe2f2bac2105f760_3164'
p1061
S'fff68-1'
p1062
sS'd67a719d72e33099bcc28e25249e8799_3208'
p1063
S'd67a7-1'
p1064
sS'ffa032e8d9bc6ae84d86ae215c5b7010_3264'
p1065
S'ffa03-1'
p1066
sS'd2e9862303ae42959b733f11a168e268_3096'
p1067
S'd2e98-2'
p1068
sS'ffeb95261fa8a20e5821ac9792a86920_3336'
p1069
S'ffeb9-1'
p1070
sS'fffd536b713e4cbd9cbdc92285daa550_3124'
p1071
S'fffd5-2'
p1072
sS'fff7de0a63e8793768d7c6b3583f7ce0_3220'
p1073
S'fff7d-7'
p1074
sS'337da6c8942095e6f1359325676f05ef_tmp_3424'
p1075
S'337da-9'
p1076
sS'fff6e10b530975c473ec236a13cc71d0_3280'
p1077
S'fff6e-8'
p1078
sS'ffd3bca013923713576c1873b81b2470_2824'
p1079
S'ffd3b-1'
p1080
sS'fff6e10b530975c473ec236a13cc71d0_3356'
p1081
S'fff6e-12'
p1082
sS'b7e52b14dc1dfa001e3c28b217b104d0_3272'
p1083
S'b7e52-8'
p1084
sS'fffdb22ca58e4211c28ab52e54380ec0_3124'
p1085
S'fffdb-1'
p1086
sS'd16a128f17d909a42dbfe0e396003fad_3084'
p1087
S'd16a1-1'
p1088
sS'005528c99846dfd84e7a29ae2cf18fd8_3208'
p1089
S'00552-2'
p1090
sS'ffff0b411b459a65efebaa66ff4fa800_3112'
p1091
S'ffff0-1'
p1092
sS'b77f1865e955be2b1ffe866f54d2b261_3164'
p1093
S'b77f1-2'
p1094
sS'06dc60ab51a3ba87757726f7a085d9d5_3176'
p1095
S'06dc6-1'
p1096
sS'fff669f3bb3ec4c7ae6ad373cf42d2e0_1296'
p1097
S'fff66-4'
p1098
sS'ffa7e0f486c47df2d71ebd1754b7a830_3272'
p1099
S'ffa7e-1'
p1100
sS'fffd7d5f853e4f1a0691b0451cc4b900_3144'
p1101
S'fffd7-3'
p1102
sS'ff57eb0d88ff5387da6e6277370fc5c0_3200'
p1103
S'ff57e-1'
p1104
sS'ffe567f1bef57fbef02d9447c5ea66a0_3240'
p1105
S'ffe56-1'
p1106
sS'fff89aa43ac37fb586ca912a180a7180_3252'
p1107
S'fff89-2'
p1108
sS'fff7114f8973a2ab18c6310d69fd6cf0_3124'
p1109
S'fff71-2'
p1110
sS'bc7f15b89bbd891f95425abb4f3b8c30_3324'
p1111
S'bc7f1-11'
p1112
sS'a21ba6f7535b5d9728a16653a74efd00_3476'
p1113
S'a21ba-7'
p1114
sS'0708a8bcda4a62e4eb87abcfb1b65860_3256'
p1115
S'0708a-3'
p1116
sS'ffdb3c00f7cc7c25f8240eed3a1d4a50_2788'
p1117
S'ffdb3-1'
p1118
sS'fff947006a585f66c2c166008f7a31e0_3252'
p1119
S'fff94-1'
p1120
sS'ffe6ff3bc571034e680d824eb9f97670_3236'
p1121
S'ffe6f-4'
p1122
sS'ffea75b723b91f1472a62ee9143c4ad0_3216'
p1123
S'ffea7-2'
p1124
sS'fffbd4a6e48a16038864b418d2f290f0_3188'
p1125
S'fffbd-4'
p1126
sS'ffb2b412efb8d79e8e932ed7997a0111_3240'
p1127
S'ffb2b-1'
p1128
sS'fff86a9c3eac29a3f5361a05cb919190_2984'
p1129
S'fff86-3'
p1130
sS'ffe8754077406068ea41fd5f3ad3d200_3280'
p1131
S'ffe87-1'
p1132
sS'a4207e48739ab4da384acaeebcba0c66_3128'
p1133
S'a4207-1'
p1134
sS'a0113172ad9bd171c0075626f04fc224_3184'
p1135
S'a0113-1'
p1136
sS'fffbfe94d811ee445fb025518ad17240_3216'
p1137
S'fffbf-3'
p1138
sS'81f727efa7f0977b86ed3581e159b219_3156'
p1139
S'81f72-1'
p1140
sS'ffff50e8f4cc02717b3fa4201efc6910_3252'
p1141
S'ffff5-2'
p1142
sS'fff733e7496283f8ad675d76005a8890_3080'
p1143
S'fff73-1'
p1144
sS'ffda619a9f4cae068b0d7862e5200170_3264'
p1145
S'ffda6-1'
p1146
sS'fff9ae9a34e8a9fcd30e9976090f77d0_3052'
p1147
S'fff9a-3'
p1148
sS'fffb6afb3d0531e087a5b6a958042780_3068'
p1149
S'fffb6-1'
p1150
sS'b174b9754af5e723a047b1093d96593b_3152'
p1151
S'b174b-1'
p1152
sS'ffe48b5a702ce1e7ea3c3851d56afe60_3260'
p1153
S'ffe48-5'
p1154
sS'd2276a5243924db8aac9fb6f0a3bd408_3292'
p1155
S'd2276-1'
p1156
sS'ff4e578bfdc4bbf718c02eb40021f360_3200'
p1157
S'ff4e5-1'
p1158
sS'ffff1adff35a087cf9ed9ed5b5be9b70_3232'
p1159
S'ffff1-5'
p1160
sS'ffff653512ab48ebc0351515ad934ac0_3284'
p1161
S'ffff6-3'
p1162
sS'ffdf4486b541b3afff70ee8c317249c0_3120'
p1163
S'ffdf4-2'
p1164
sS'0eca924385c6183110cfb84e571c3e30_3248'
p1165
S'0eca9-6'
p1166
sS'b81120889b5fe4e7b0080e7c5c0413f0_3156'
p1167
S'b8112-3'
p1168
sS'ffe9afc0f1344eb2ee6b1c391445bdd0_3152'
p1169
S'ffe9a-1'
p1170
sS'0eca924385c6183110cfb84e571c3e30_3240'
p1171
S'0eca9-5'
p1172
sS'fffa8cf187ca17339e1cfa4ca5833810_3220'
p1173
S'fffa8-2'
p1174
sS'fffb5d1eb9b54a7d6fa7c586c4eab280_3228'
p1175
S'fffb5-2'
p1176
sS'33a6249e0f094d64bda9660f3294c1ba_3064'
p1177
S'33a62-1'
p1178
sS'ff06756c48d58b6e258edea376b904b0_3260'
p1179
S'ff067-2'
p1180
sS'fffda772e9682b5cd713a1aff6bebe71_3604'
p1181
S'fffda-17'
p1182
sS'b0576ac96f4dd6b5ec82566b5f63f651_3144'
p1183
S'b0576-1'
p1184
sS'ff99189e8f21d3f95eac109a09211e59_3220'
p1185
S'ff991-1'
p1186
sS'ffff7e1272090fdd1e80508709d8e890_3156'
p1187
S'ffff7-2'
p1188
sS'fff24ec818613a1a77cbf043e9ea9100_3164'
p1189
S'fff24-1'
p1190
sS'2b0d1f7527e0191f190744e8a1e319c3_3000'
p1191
S'2b0d1-4'
p1192
sS'a4756d0fb104b86ec1c6cbbb23a2c45b_3228'
p1193
S'a4756-1'
p1194
sS'ffe48b5a702ce1e7ea3c3851d56afe60_3280'
p1195
S'ffe48-6'
p1196
sS'ffffcf6d4f65461b7f08106aabb1cc80_3164'
p1197
S'ffffc-2'
p1198
sS'bca992f77cb48afc06c28461c83403a0_3360'
p1199
S'bca99-2'
p1200
sS'ffe324030cae3b7562f245864b091e00_3300'
p1201
S'ffe32-2'
p1202
sS'fffd8b29c3dd098db963012a44917d10_3112'
p1203
S'fffd8-1'
p1204
sS'55da555e75ab922f7dfcceb1209289b3_3088'
p1205
S'55da5-1'
p1206
sS'52cd8c9cc8c4e794e9243d787853f556_3192'
p1207
S'52cd8-3'
p1208
sS'b247b6b602fbfeafd096088a56f6ffb9_3152'
p1209
S'b247b-1'
p1210
sS'31b164b4dc1d2744bf11183604572648_3392'
p1211
S'31b16-4'
p1212
sS'ff3b789f874226b229404093cbbb18b0_3296'
p1213
S'ff3b7-1'
p1214
sS'51fc857e648ed394fc515417ee04c633_3188'
p1215
S'51fc8-1'
p1216
sS'337da6c8942095e6f1359325676f05ef_3320'
p1217
S'337da-4'
p1218
sS'fff67ad46d9fdd282d9c6da6cc9950e0_3168'
p1219
S'fff67-2'
p1220
sS'930bc9f36310286d105c318a96264eba_3140'
p1221
S'930bc-1'
p1222
sS'27f00a453f3bdd8a3beb273b3ad2d39d_3212'
p1223
S'27f00-1'
p1224
sS'83f04b9aebe38cb456cf68f206b0f688_3288'
p1225
S'83f04-2'
p1226
sS'ffff66f163b13d50c640303d7db31350_3116'
p1227
S'ffff6-5'
p1228
sS'ff8478816efbaf8a8503005dc114b780_3156'
p1229
S'ff847-1'
p1230
sS'fffb3892b101ba5861918bfe8acffde0_3152'
p1231
S'fffb3-2'
p1232
sS'ffe45b85dd39575bf4559c56529512b0_3216'
p1233
S'ffe45-6'
p1234
sS'0708a8bcda4a62e4eb87abcfb1b65860_3412'
p1235
S'0708a-10'
p1236
sS'fff0203b682aa62f1d93c7fbc37915f0_3212'
p1237
S'fff02-5'
p1238
sS'ff88e8ec4862285d3cae147a39957740_2936'
p1239
S'ff88e-1'
p1240
sS'31b164b4dc1d2744bf11183604572648_tmp_3232'
p1241
S'31b16-6'
p1242
sS'fff9bbf76d90662acdcc3d812a723460_3260'
p1243
S'fff9b-2'
p1244
sS'ffa298ba963c2778b60e8c1c2671e0f0_3164'
p1245
S'ffa29-1'
p1246
sS'fff35f94cfc3052d1b9675a3e6660fe0_3196'
p1247
S'fff35-5'
p1248
sS'ffe268ffc185abe5b68970e45eb74810_3204'
p1249
S'ffe26-2'
p1250
sS'ffef83688d9f82b9a5c4aad39284b100_3132'
p1251
S'ffef8-1'
p1252
sS'c3c7402347a313740a7a10edc33cb4c5_3204'
p1253
S'c3c74-1'
p1254
sS'a03c34b3882e76511c31cd6a7e158bc6_3140'
p1255
S'a03c3-1'
p1256
sS'ff140e30290f28e80c0924f85ca8fa4b_3260'
p1257
S'ff140-1'
p1258
sS'fff9ef061a3f3336ae1040bb737a19d0_3220'
p1259
S'fff9e-1'
p1260
sS'd5229b1ba9ac805a1e7c0b871bd1eb96_3112'
p1261
S'd5229-2'
p1262
sS'ff7d9fd739344bfcd6286eb0ef81f840_3328'
p1263
S'ff7d9-2'
p1264
sS'fffee85d86b56a60f616d5e13d767c60_3128'
p1265
S'fffee-3'
p1266
sS'fff848a7dd117f164e9ebf6ec0c6e40f_3300'
p1267
S'fff84-4'
p1268
sS'10438da7c2166156c4fbce788e4793ed_3152'
p1269
S'10438-1'
p1270
sS'd0c4bba46e68e0ff5efce1297faa3b49_3148'
p1271
S'd0c4b-1'
p1272
sS'fffec580a2ab46463159beb4287ac790_3136'
p1273
S'fffec-1'
p1274
sS'fff7cc648deea0712f1cced9f01ee4b0_3236'
p1275
S'fff7c-4'
p1276
sS'fff7cf6ab07588c2344362421845e5a0_3196'
p1277
S'fff7c-18'
p1278
sS'fff8a067c72c3b910e7d282903157110_3112'
p1279
S'fff8a-1'
p1280
sS'ffebd2d1d3fe73f1b0145bd63b7c9e50_3292'
p1281
S'ffebd-1'
p1282
sS'ffff8d32c95cd13f2e517494311cdc90_3140'
p1283
S'ffff8-5'
p1284
sS'4c73c216e72a1ec198cd99f4ee96d2d0_3252'
p1285
S'4c73c-7'
p1286
sS'11dbaa09f5b949c9d6e0db7e157cc860_3564'
p1287
S'11dba-12'
p1288
sS'fff6e10b530975c473ec236a13cc71d0_3292'
p1289
S'fff6e-9'
p1290
sS'ff0994555634f9d475a6e2cccda1c3c0_3216'
p1291
S'ff099-1'
p1292
sS'ffe74ad543c00f84ab1ccff4a978ed10_3320'
p1293
S'ffe74-4'
p1294
sS'fff8be7d8dd737679512d74bb4ffb520_3172'
p1295
S'fff8b-6'
p1296
sS'c121f821dc6853574777f3bdf6a68c5a_3168'
p1297
S'c121f-2'
p1298
sS'80cf51208fbee22191e5590038b0df80_3208'
p1299
S'80cf5-4'
p1300
sS'ffe293dafbd1857839f5381b662ce130_3228'
p1301
S'ffe29-1'
p1302
sS'ffffcf6d4f65461b7f08106aabb1cc80_3440'
p1303
S'ffffc-5'
p1304
sS'11dbaa09f5b949c9d6e0db7e157cc860_3364'
p1305
S'11dba-6'
p1306
sS'4c73c216e72a1ec198cd99f4ee96d2d0_3412'
p1307
S'4c73c-12'
p1308
sS'ffe63d41ff66a0dfe31762471171f950_3160'
p1309
S'ffe63-5'
p1310
sS'ffe545f016be501a6625e887b7bff500_3088'
p1311
S'ffe54-1'
p1312
sS'316a01e2c518f64cf2f8b0a843cad0f1_3264'
p1313
S'316a0-1'
p1314
sS'60d3d41ae03d24038520a7dee6a0abbc_3224'
p1315
S'60d3d-1'
p1316
sS'fffa2027f4d1e20b5229ec6309ceed4f_3208'
p1317
S'fffa2-1'
p1318
sS'b7e52b14dc1dfa001e3c28b217b104d0_3244'
p1319
S'b7e52-5'
p1320
sS'fff3236a1ded79b7c1138fca11971f60_3208'
p1321
S'fff32-2'
p1322
sS'fff07b9dfd00b3554909ee30c671d4d0_3200'
p1323
S'fff07-2'
p1324
sS'a3512f81f74bab766b8d55d6480ea245_3212'
p1325
S'a3512-1'
p1326
sS'ffff2915f8f4ae0b7de3cbbd88dd3a40_2964'
p1327
S'ffff2-4'
p1328
sS'fff47004caa5598f4b98907239d45120_3148'
p1329
S'fff47-1'
p1330
sS'fff9a30356f849b3a23bdd22201e6eb0_3152'
p1331
S'fff9a-2'
p1332
sS'fffdf1d57e5160d9ae1e053ef97c66c0_3208'
p1333
S'fffdf-1'
p1334
sS'ffff809e7b5a3284ce924696241be7a0_3176'
p1335
S'ffff8-2'
p1336
sS'0708a8bcda4a62e4eb87abcfb1b65860_3268'
p1337
S'0708a-4'
p1338
sS'bc7f15b89bbd891f95425abb4f3b8c30_3316'
p1339
S'bc7f1-10'
p1340
sS'fff669f3bb3ec4c7ae6ad373cf42d2e0_3312'
p1341
S'fff66-8'
p1342
sS'fffe1e7b667a9ae17a22a0a9fe6f8f70_3416'
p1343
S'fffe1-11'
p1344
sS'ffdc76ac04d7b8f9bd848d2695468e50_3296'
p1345
S'ffdc7-1'
p1346
sS'ff6047f536d8a3017b5e4453df61b720_3196'
p1347
S'ff604-1'
p1348
sS'ffde0af6312a773159ae186a4e747bc0_3348'
p1349
S'ffde0-2'
p1350
sS'b7e52b14dc1dfa001e3c28b217b104d0_3396'
p1351
S'b7e52-17'
p1352
sS'fff6586e6446f894993a06eaa86204c0_3160'
p1353
S'fff65-3'
p1354
sS'd203e861230e719e0a74031bd55ccd4e_3128'
p1355
S'd203e-1'
p1356
sS'35a94ca04d07c9427c78d1befc431ea6_3252'
p1357
S'35a94-1'
p1358
sS'ffe6ff3bc571034e680d824eb9f97670_3220'
p1359
S'ffe6f-2'
p1360
sS'ff1b873ac048c9dfa4cbe13ae08e0bb0_3272'
p1361
S'ff1b8-1'
p1362
sS'ff8fe82322f44f33a2c68a52676ddaa0_3184'
p1363
S'ff8fe-2'
p1364
sS'ffe6ff3bc571034e680d824eb9f97670_3228'
p1365
S'ffe6f-3'
p1366
sS'fffa14684ec37491be14e18c73ffeb80_2812'
p1367
S'fffa1-1'
p1368
sS'fff44b0e85a426813e743df7b76f1200_3260'
p1369
S'fff44-4'
p1370
sS'fff7730a9448536a27b8265d83ddbf90_3160'
p1371
S'fff77-1'
p1372
sS'ffe8754077406068ea41fd5f3ad3d200_3296'
p1373
S'ffe87-2'
p1374
sS'ffe716c210da3fd5eb97c286bcd79c80_3072'
p1375
S'ffe71-1'
p1376
sS'd91a6687f9760b20e5aa4e88cf8b18a8_3180'
p1377
S'd91a6-1'
p1378
sS'fffbfe94d811ee445fb025518ad17240_3208'
p1379
S'fffbf-2'
p1380
sS'd695c2c7d9718238bd95b354a147c775_3128'
p1381
S'd695c-1'
p1382
sS'fffc514d17e4c1e1f6f01a3cb5cbb7e8_3136'
p1383
S'fffc5-1'
p1384
sS'8da7b6c67ebb14f9881ec0a6bba2dd10_3168'
p1385
S'8da7b-1'
p1386
sS'ff485fd70ef073885bf9c5e70a531c00_3264'
p1387
S'ff485-3'
p1388
sS'fffd3d3f161ef56857d1c4bba3789bc0_3176'
p1389
S'fffd3-5'
p1390
sS'ffe48b5a702ce1e7ea3c3851d56afe60_3452'
p1391
S'ffe48-15'
p1392
sS'b2b712a7e0f486a0eddfb412f06a6c21_3064'
p1393
S'b2b71-1'
p1394
sS'ff112d52130a50a70544e150ad8b5bf0_2808'
p1395
S'ff112-1'
p1396
sS'ffda81db1b4cfcd30ba3e07c0ccbd1c0_2952'
p1397
S'ffda8-2'
p1398
sS'b12e66515990aba2ca11fd4e72959f42_3124'
p1399
S'b12e6-1'
p1400
sS'fff0061ee3571f72adf1545a9ddeea10_3348'
p1401
S'fff00-3'
p1402
sS'c55c1627f5bf9fc6d85ea6e8501dbf78_tmp_3324'
p1403
S'c55c1-9'
p1404
sS'ffff2e5ed046a83df329f7ba328cac00_3284'
p1405
S'ffff2-9'
p1406
sS'ffe634543a6589f670653ee17dd2a3d0_3216'
p1407
S'ffe63-3'
p1408
sS'd8002326945c48baac1ea11b258cf360_3136'
p1409
S'd8002-1'
p1410
sS'ffffb6ff6afe83a660bdab06ef16fea0_3152'
p1411
S'ffffb-2'
p1412
sS'ff90e2b30134aa53546775a8ccc62e60_IE_3132'
p1413
S'ff90e-2'
p1414
sS'52cd8c9cc8c4e794e9243d787853f556_tmp_3080'
p1415
S'52cd8-6'
p1416
sS'ffdd217403c094e38058567d29215c40_3168'
p1417
S'ffdd2-1'
p1418
sS'c1f844e0d2a6b7fdeddc9d6758a1e499_3168'
p1419
S'c1f84-1'
p1420
sS'fffda772e9682b5cd713a1aff6bebe71_3388'
p1421
S'fffda-16'
p1422
sS'b81120889b5fe4e7b0080e7c5c0413f0_3148'
p1423
S'b8112-2'
p1424
sS'b7e52b14dc1dfa001e3c28b217b104d0_3492'
p1425
S'b7e52-19'
p1426
sS'ffffcf6d4f65461b7f08106aabb1cc80_3284'
p1427
S'ffffc-3'
p1428
sS'ff273ad9f3b96540495d3556ab53b5d0_3148'
p1429
S'ff273-1'
p1430
sS'ffff14b75aff6098a07c30d75a4deae0_3116'
p1431
S'ffff1-2'
p1432
sS'ff7d1ed012ac7d9fb2e448281215d170_3204'
p1433
S'ff7d1-2'
p1434
sS'52cd8c9cc8c4e794e9243d787853f556_3292'
p1435
S'52cd8-5'
p1436
sS'ffc1cf1575c5dfa972cbfe0b5472ef30_3144'
p1437
S'ffc1c-3'
p1438
sS'a17b9b402096a12c4d9e7f1c57a61133_3260'
p1439
S'a17b9-1'
p1440
sS'ff3ecf142a1a8c043616beaf3123a4d0_3292'
p1441
S'ff3ec-2'
p1442
sS'31b164b4dc1d2744bf11183604572648_tmp_3428'
p1443
S'31b16-9'
p1444
sS'fffac37ce221ef755719a068a453c880_3140'
p1445
S'fffac-1'
p1446
sS'fff80e5f4fa34da72941729445708e10_3224'
p1447
S'fff80-5'
p1448
sS'fffe1e7b667a9ae17a22a0a9fe6f8f70_3408'
p1449
S'fffe1-10'
p1450
sS'fff9db8df5878fc4b6385905f1268790_3244'
p1451
S'fff9d-2'
p1452
sS'fff8b7809a01a33e3d61ffefc209b390_3340'
p1453
S'fff8b-3'
p1454
sS'0c494687e1a01a7e3eefc541f0a91d50_3372'
p1455
S'0c494-19'
p1456
sS'a607dd2dc35f0a24e010756620c19227_3080'
p1457
S'a607d-1'
p1458
sS'518c227fc67926213502da39d8d44fd6_3220'
p1459
S'518c2-2'
p1460
sS'ffdcf8a72484358fdba9882dd3c195c0_3272'
p1461
S'ffdcf-1'
p1462
sS'd496a8ddf556a2097f49e780ff26ec38_3240'
p1463
S'd496a-1'
p1464
sS'fff6e10b530975c473ec236a13cc71d0_3400'
p1465
S'fff6e-15'
p1466
sS'519b94ba9a84b4ede97b7478cefacf65_3164'
p1467
S'519b9-1'
p1468
sS'fffd3992a840bdd03383a6b0503d25f0_IE_3328'
p1469
S'fffd3-3'
p1470
sS'ff04dcfb1b7270da0021acc0bd478d80_2900'
p1471
S'ff04d-1'
p1472
sS'ff5ec6e03fc96ab807676ab3fbe0a030_3256'
p1473
S'ff5ec-1'
p1474
sS'52cd8c9cc8c4e794e9243d787853f556_3072'
p1475
S'52cd8-1'
p1476
sS'fffd28bc956b4adf388e1550d51a60f0_3124'
p1477
S'fffd2-2'
p1478
sS'fffb4f9588d1055ec701b77e2371e850_3116'
p1479
S'fffb4-10'
p1480
sS'ff7da29774b791c9a159ddfb7f5d1850_3204'
p1481
S'ff7da-1'
p1482
sS'd381dc0651aee234b7d59c06800049c4_3196'
p1483
S'd381d-2'
p1484
sS'fff8df176184edc60804f17e75d3e440_3180'
p1485
S'fff8d-2'
p1486
sS'ffef9836c73524c6110510f1eb8ab480_3060'
p1487
S'ffef9-1'
p1488
sS'fffbf26e959be3004050b10e8ea37c20_3100'
p1489
S'fffbf-1'
p1490
sS'fff3acc5d4f9a2868c7b5427c2adc2b0_3384'
p1491
S'fff3a-7'
p1492
sS'fff5042ad92e80aaea76e9d870035ae0_3272'
p1493
S'fff50-1'
p1494
sS'ffffdfcde86d7167943e3b76a7f1edb4_3140'
p1495
S'ffffd-2'
p1496
sS'82ec14e682cb0322129fb4e42304962d_3236'
p1497
S'82ec1-1'
p1498
sS'fff0203b682aa62f1d93c7fbc37915f0_3228'
p1499
S'fff02-6'
p1500
sS'ffe5eaa82debc744b9c9c900fa22bc70_3116'
p1501
S'ffe5e-5'
p1502
sS'ff5216f17439209fb0bba4943948e580_3288'
p1503
S'ff521-1'
p1504
sS'5169113d8207a5605ff57604a00c030a_3072'
p1505
S'51691-5'
p1506
sS'ffc0a793750f8a3cba5d1d1762a14fbc_3308'
p1507
S'ffc0a-1'
p1508
sS'246920c3ec29d419549fadefd78c30e4_3260'
p1509
S'24692-1'
p1510
sS'fff2a3b4ac499c3eb13e682855cbf6a0_3252'
p1511
S'fff2a-2'
p1512
sS'ffff8f3a39da15df06e61f4f1180ded0_3208'
p1513
S'ffff8-6'
p1514
sS'518c227fc67926213502da39d8d44fd6_3324'
p1515
S'518c2-3'
p1516
sS'c3ec90236977ee3e046c466cbb04d031_3280'
p1517
S'c3ec9-1'
p1518
sS'ffff5ec18d19dd74a18ca845c7b1d7c0_3164'
p1519
S'ffff5-3'
p1520
sS'ffb0be55305f939c7f12a821b9985230_3272'
p1521
S'ffb0b-1'
p1522
sS'fb9ad9b1c5a2e24a61735895690849a0_3320'
p1523
S'fb9ad-5'
p1524
sS'fffc4faedbf0a97b03f1ec4c4f277fe0_IE_3164'
p1525
S'fffc4-6'
p1526
sS'ffece98efa4f0d7c5020413df1cae2e0_3096'
p1527
S'ffece-1'
p1528
sS'5116f8d8c31a4e458c4a633c04082ebd_3288'
p1529
S'5116f-3'
p1530
sS'ffdf94033244300f30409aae9053dad0_3116'
p1531
S'ffdf9-2'
p1532
sS'fffdeb3075a6e2a03026d143c7b575a0_3196'
p1533
S'fffde-2'
p1534
sS'fffe1eaea1d65dce46c35c4f2b77adbd_3172'
p1535
S'fffe1-18'
p1536
sS'fff3236a1ded79b7c1138fca11971f60_3184'
p1537
S'fff32-1'
p1538
sS'fff0203b682aa62f1d93c7fbc37915f0_3400'
p1539
S'fff02-15'
p1540
sS'fff6e10b530975c473ec236a13cc71d0_424'
p1541
S'fff6e-17'
p1542
sS'81823bb1c8598eed93c96cab959c2f74_448'
p1543
S'81823-1'
p1544
sS'fffb4a0d093efe15a7690e0ccb8d92f0_3224'
p1545
S'fffb4-8'
p1546
sS'ffaaaef8426eae893069ec642b7fbe90_3248'
p1547
S'ffaaa-1'
p1548
sS'ffe3854f6b135356e619680964df8790_3220'
p1549
S'ffe38-2'
p1550
sS'c40f9f7eea18ede8f0f6ed40f3e8d39e_3120'
p1551
S'c40f9-1'
p1552
sS'ffedc4505502cffe29797595dd1dc290_3336'
p1553
S'ffedc-2'
p1554
sS'86060592b44f5796e297d495f5aaee4f_3180'
p1555
S'86060-1'
p1556
sS'ff08082645665f33630663500a8262d0_3060'
p1557
S'ff080-2'
p1558
sS'ffdb21a872cdb1f04f6f512dcfebb0c0_2940'
p1559
S'ffdb2-2'
p1560
sS'fffef43efa6dac758f2497ee8758a8b0_3232'
p1561
S'fffef-1'
p1562
sS'fffa5540cace8716c5369459b2c4e2d0_3132'
p1563
S'fffa5-1'
p1564
sS'ffe631bb80050296f6482e0eb5b15a60_3192'
p1565
S'ffe63-1'
p1566
sS'31db43893a0d7c213dee4bad716bbb62_3292'
p1567
S'31db4-1'
p1568
sS'd6e0cbadf6d62c8fc034954878bdf7b6_3192'
p1569
S'd6e0c-1'
p1570
sS'fffc1abc75ec51607065aebc57b32530_3204'
p1571
S'fffc1-1'
p1572
sS'51b69c710ade0340e86daf70c8a07e12_3320'
p1573
S'51b69-3'
p1574
sS'80cf51208fbee22191e5590038b0df80_3168'
p1575
S'80cf5-1'
p1576
sS'ff7e3a8c2daff738dd511ac1a8b1baa0_IE_3400'
p1577
S'ff7e3-2'
p1578
sS'fffbfe94d811ee445fb025518ad17240_IE_3280'
p1579
S'fffbf-4'
p1580
sS'ffe9c4b080bef3d843434aec8f5cabe0_3268'
p1581
S'ffe9c-1'
p1582
sS'5ee1ed1d1c3dbbb3e920e56229023080_3360'
p1583
S'5ee1e-8'
p1584
sS'ffa1dbac37eb1ae37414f3e89e9cef70_3160'
p1585
S'ffa1d-1'
p1586
sS'2b0d1f7527e0191f190744e8a1e319c3_2828'
p1587
S'2b0d1-1'
p1588
sS'ffe293dafbd1857839f5381b662ce130_PEOOYX_3252'
p1589
S'ffe29-2'
p1590
sS'd5ebf976acd93ae86bc92b49273ebbd2_3136'
p1591
S'd5ebf-1'
p1592
sS'c16825d05bbb35c0d36120011c6d666f_3192'
p1593
S'c1682-1'
p1594
sS'ff46a6b614f15c680b913af2c8728cc0_3232'
p1595
S'ff46a-1'
p1596
sS'b7e52b14dc1dfa001e3c28b217b104d0_3256'
p1597
S'b7e52-6'
p1598
sS'ffefbf2eb1a8500433f757b5ea544b30_3236'
p1599
S'ffefb-3'
p1600
sS'0708a8bcda4a62e4eb87abcfb1b65860_3388'
p1601
S'0708a-9'
p1602
sS'2b0d1f7527e0191f190744e8a1e319c3_tmp_3044'
p1603
S'2b0d1-9'
p1604
sS'ffbf583b584700d7ca97b30e1546d1e0_3224'
p1605
S'ffbf5-1'
p1606
sS'0708a8bcda4a62e4eb87abcfb1b65860_3276'
p1607
S'0708a-5'
p1608
sS'd695c2c7d9718238bd95b354a147c775_3200'
p1609
S'd695c-3'
p1610
sS'ffe9361e74f13353aa15c2470cf218f0_3184'
p1611
S'ffe93-1'
p1612
sS'fffb41c114e3c30249ecdd2b3d449910_3188'
p1613
S'fffb4-4'
p1614
sS'bc7f15b89bbd891f95425abb4f3b8c30_3304'
p1615
S'bc7f1-9'
p1616
sS'fffe1e7b667a9ae17a22a0a9fe6f8f70_3340'
p1617
S'fffe1-6'
p1618
sS'940f7e9ab19be7a9ce0008a6e6b01f9f_3256'
p1619
S'940f7-2'
p1620
sS'ff80a76c4020a379c9dd96688104c840_3200'
p1621
S'ff80a-2'
p1622
sS'fff26188530a82f3667c66da19168f20_3136'
p1623
S'fff26-1'
p1624
sS'ffdd2c9ffed68fd839624e8e3553f290_2832'
p1625
S'ffdd2-8'
p1626
sS'237c4e337993167ea887286c61844807_3152'
p1627
S'237c4-1'
p1628
sS'ffe48b5a702ce1e7ea3c3851d56afe60_432'
p1629
S'ffe48-17'
p1630
sS'ffa13d8dec3645aaf9edb78c4ed56ab0_3168'
p1631
S'ffa13-2'
p1632
sS'ffee8e2af3f861e44e691ac886cfee30_3156'
p1633
S'ffee8-4'
p1634
sS'fff6e10b530975c473ec236a13cc71d0_3180'
p1635
S'fff6e-3'
p1636
sS'5169113d8207a5605ff57604a00c030a_2968'
p1637
S'51691-3'
p1638
sS'ff07a4eccc209b35c5b0d5eee38d96c0_IE_3380'
p1639
S'ff07a-3'
p1640
sS'ff485fd70ef073885bf9c5e70a531c00_3300'
p1641
S'ff485-5'
p1642
sS'33ba5ee592067b75ac74aceb66170787_2836'
p1643
S'33ba5-1'
p1644
sS'a2593ed0e66611da58ad2fcdca426cdb_3156'
p1645
S'a2593-1'
p1646
sS'fffc4da41d4a46342824795f59298100_3060'
p1647
S'fffc4-3'
p1648
sS'2b0d1f7527e0191f190744e8a1e319c3_2952'
p1649
S'2b0d1-3'
p1650
sS'fff6628749b518fb4c6a7e1bdf8e2770_3268'
p1651
S'fff66-1'
p1652
sS'ffda81db1b4cfcd30ba3e07c0ccbd1c0_2892'
p1653
S'ffda8-1'
p1654
sS'ff485fd70ef073885bf9c5e70a531c00_3276'
p1655
S'ff485-4'
p1656
sS'ff42448c0566e0579107cdeea79c5490_3260'
p1657
S'ff424-1'
p1658
sS'fffbaf1c757b1c166f74849e5abf4340_3280'
p1659
S'fffba-2'
p1660
sS'fff751922a607ed0888f9d23819cb4c0_3164'
p1661
S'fff75-1'
p1662
sS'ffea985b9cb20ec5dc60139ffff29d10_3216'
p1663
S'ffea9-2'
p1664
sS'ffe48b5a702ce1e7ea3c3851d56afe60_3440'
p1665
S'ffe48-14'
p1666
sS'043121379d4a5f0f227d74ef0336428c_3260'
p1667
S'04312-1'
p1668
sS'fff669f3bb3ec4c7ae6ad373cf42d2e0_3292'
p1669
S'fff66-7'
p1670
sS'ffdfa9b9d02e87e0566d2648f5f657a0_3248'
p1671
S'ffdfa-5'
p1672
sS'0c494687e1a01a7e3eefc541f0a91d50_3380'
p1673
S'0c494-20'
p1674
sS'707e73f2f46c9bf3afca84e05b895862_3228'
p1675
S'707e7-1'
p1676
sS'fff1517aebae3c980f13efd7edea2480_3208'
p1677
S'fff15-1'
p1678
sS'b3f2970a3b5196f28dc56ed39f2b2508_3140'
p1679
S'b3f29-1'
p1680
sS'0c494687e1a01a7e3eefc541f0a91d50_3140'
p1681
S'0c494-1'
p1682
sS'b67c317f6397fde0790290046ab3ff1b_3212'
p1683
S'b67c3-1'
p1684
sS'ff273ad9f3b96540495d3556ab53b5d0_3176'
p1685
S'ff273-2'
p1686
sS'ff06756c48d58b6e258edea376b904b0_3240'
p1687
S'ff067-1'
p1688
sS'ffdfa9b9d02e87e0566d2648f5f657a0_3172'
p1689
S'ffdfa-2'
p1690
sS'fffb1bef367cd3542a0e7c96c88e46d0_3372'
p1691
S'fffb1-2'
p1692
sS'fff926809a51a9aab09d82938eb4f574_3260'
p1693
S'fff92-1'
p1694
sS'5075e81a944c44aa4701d94a80c0cccc_3176'
p1695
S'5075e-1'
p1696
sS'ffe807a26d3f360acced9c42a5f1c180_3152'
p1697
S'ffe80-1'
p1698
sS'62f6ca088970853ccb2fd794cc65bf65_3308'
p1699
S'62f6c-1'
p1700
sS'ffffb557c6b83ef097dce73ae2605310_3152'
p1701
S'ffffb-1'
p1702
sS'fff988e5deb6cc408bb8fbb9931e3630_3272'
p1703
S'fff98-3'
p1704
sS'7070e73ac6795a8a02270381fcdfb99b_3200'
p1705
S'7070e-1'
p1706
sS'c408d44ff050d84a6679c88b6c156ca7_3132'
p1707
S'c408d-1'
p1708
sS'fff8b7809a01a33e3d61ffefc209b390_3352'
p1709
S'fff8b-4'
p1710
sS'fff2319f90cba5ffe1284b0bd6b136d0_3212'
p1711
S'fff23-1'
p1712
sS'a607dd2dc35f0a24e010756620c19227_3092'
p1713
S'a607d-2'
p1714
sS'fff6c90b89296ccc44816917be8510f0_3168'
p1715
S'fff6c-3'
p1716
sS'fffda772e9682b5cd713a1aff6bebe71_3240'
p1717
S'fffda-6'
p1718
sS'94d0442c0563b5bfddc6d683bd0d9087_3164'
p1719
S'94d04-1'
p1720
sS'ffdd217403c094e38058567d29215c40_3304'
p1721
S'ffdd2-6'
p1722
sS'ffdf46405b3f930870d92636eb06a080_3212'
p1723
S'ffdf4-3'
p1724
sS'fffda772e9682b5cd713a1aff6bebe71_3248'
p1725
S'fffda-7'
p1726
sS'ffdd217403c094e38058567d29215c40_3336'
p1727
S'ffdd2-7'
p1728
sS'fff440e64edea20f4e63d60a5d0736b0_3252'
p1729
S'fff44-2'
p1730
sS'fffde4492f5c054feb2c8c9042039d40_3124'
p1731
S'fffde-1'
p1732
sS'31b164b4dc1d2744bf11183604572648_tmp_3328'
p1733
S'31b16-7'
p1734
sS'fffe1e7b667a9ae17a22a0a9fe6f8f70_3432'
p1735
S'fffe1-12'
p1736
sS'ffb5de4db95d18b07d0c568f8675da9a_3228'
p1737
S'ffb5d-1'
p1738
sS'ffb2b412efb8d79e8e932ed7997a0111_winExt_3256'
p1739
S'ffb2b-2'
p1740
sS'fffeab12697deecd6e76640a3a57b700_3172'
p1741
S'fffea-1'
p1742
sS'9271df78c6f33488bae8d9ab82a47440_3200'
p1743
S'9271d-1'
p1744
sS'833562ee3e3a2569fe42a303d5619464_3088'
p1745
S'83356-2'
p1746
sS'fffc84bb695f8ba7c7164ef9c69ba480_3172'
p1747
S'fffc8-2'
p1748
sS'd7f83cb68543a60efc18de6afeda3afd_3204'
p1749
S'd7f83-1'
p1750
sS'a3d453875aea8d2def1aa20f22bd33dc_3280'
p1751
S'a3d45-3'
p1752
sS'fb9ad9b1c5a2e24a61735895690849a0_3312'
p1753
S'fb9ad-4'
p1754
sS'2b0d1f7527e0191f190744e8a1e319c3_tmp_2848'
p1755
S'2b0d1-6'
p1756
sS'24ef90755c68c3f2f6d4f8805615bad6_3244'
p1757
S'24ef9-1'
p1758
sS'a4756d0fb104b86ec1c6cbbb23a2c45b_tmp_3404'
p1759
S'a4756-8'
p1760
sS'd1f8897c649bd60080c8b1d7027785d9_3168'
p1761
S'd1f88-1'
p1762
sS'ffe45b85dd39575bf4559c56529512b0_3300'
p1763
S'ffe45-7'
p1764
sS'fff3acc5d4f9a2868c7b5427c2adc2b0_3280'
p1765
S'fff3a-3'
p1766
sS'ffc475a914fd70f0cacfbb56801ed860_3232'
p1767
S'ffc47-1'
p1768
sS'fffd1d364f6801369faf1b34b149b1c0_3144'
p1769
S'fffd1-1'
p1770
sS'fff0203b682aa62f1d93c7fbc37915f0_3140'
p1771
S'fff02-1'
p1772
sS'2017146d4cec9afb3f477f8a541e5aa1_3204'
p1773
S'20171-1'
p1774
sS'fffae342dbd287cdda3c60217d5c7af0_3200'
p1775
S'fffae-2'
p1776
sS'fffe962a0aba7faf4a217f499a43bbf2_3080'
p1777
S'fffe9-1'
p1778
sS'fffa5be84307f6696ba3c33220a535c0_3368'
p1779
S'fffa5-3'
p1780
sS'f574c368e4e72f242ab4f3caf6f55e80_3500'
p1781
S'f574c-2'
p1782
sS'fff832b43dd3c9801399fa092c6148e0_3188'
p1783
S'fff83-7'
p1784
sS'ffe634543a6589f670653ee17dd2a3d0_1568'
p1785
S'ffe63-2'
p1786
sS'4c73c216e72a1ec198cd99f4ee96d2d0_3272'
p1787
S'4c73c-9'
p1788
sS'ffff8d32c95cd13f2e517494311cdc90_3120'
p1789
S'ffff8-4'
p1790
sS'ffabb0a64b8c62e7b6a6657c263fd880_2848'
p1791
S'ffabb-1'
p1792
sS'dc16fe01945207255f88fd0651c89e90_3288'
p1793
S'dc16f-2'
p1794
sS'c3ea3ad31e662953f0fcd1c62c50b130_3212'
p1795
S'c3ea3-2'
p1796
sS'c55c1627f5bf9fc6d85ea6e8501dbf78_3220'
p1797
S'c55c1-3'
p1798
sS'ffee895a1c0cff53bd6c1297628cf730_3192'
p1799
S'ffee8-1'
p1800
sS'5600702668f1886cd37782f53a34d316_3156'
p1801
S'56007-1'
p1802
sS'5116f8d8c31a4e458c4a633c04082ebd_3252'
p1803
S'5116f-2'
p1804
sS'fff66fdca0a945d3125d271cd1624a33_3232'
p1805
S'fff66-12'
p1806
sS'80cf51208fbee22191e5590038b0df80_3172'
p1807
S'80cf5-2'
p1808
sS'fff8be7d8dd737679512d74bb4ffb520_3112'
p1809
S'fff8b-5'
p1810
sS'fff6e10b530975c473ec236a13cc71d0_3368'
p1811
S'fff6e-13'
p1812
sS'fffa638971ec9c35c5c62a04d532b9e0_3128'
p1813
S'fffa6-2'
p1814
sS'fffceede255b4057498aed1eebdfaeb0_3168'
p1815
S'fffce-4'
p1816
sS'11dbaa09f5b949c9d6e0db7e157cc860_3380'
p1817
S'11dba-7'
p1818
sS'902e9898276a9dd149301756092550ce_3228'
p1819
S'902e9-1'
p1820
sS'fffa02e14caeeaaa2fe17929e241d370_3104'
p1821
S'fffa0-1'
p1822
sS'ffa1dbac37eb1ae37414f3e89e9cef70_3176'
p1823
S'ffa1d-2'
p1824
sS'fffa844ec82df88bb4e46014d8adc130_3160'
p1825
S'fffa8-1'
p1826
sS'fff08646c278e8ac4fb6e25908679220_3132'
p1827
S'fff08-2'
p1828
sS'4c73c216e72a1ec198cd99f4ee96d2d0_3188'
p1829
S'4c73c-3'
p1830
sS'fffc302c9c02a3e76c5ccdbd97e779f0_3116'
p1831
S'fffc3-3'
p1832
sS'ffff2915f8f4ae0b7de3cbbd88dd3a40_2984'
p1833
S'ffff2-5'
p1834
sS'd2e9862303ae42959b733f11a168e268_3048'
p1835
S'd2e98-1'
p1836
sS'fffe1e7b667a9ae17a22a0a9fe6f8f70_3352'
p1837
S'fffe1-7'
p1838
sS'ffe5c541f680e4833789b825d25b4410_3256'
p1839
S'ffe5c-1'
p1840
sS'fff8192f4817bb952892ccd775cebec0_3192'
p1841
S'fff81-4'
p1842
sS'fffb41c114e3c30249ecdd2b3d449910_3196'
p1843
S'fffb4-5'
p1844
sS'ffff7e1272090fdd1e80508709d8e890_3172'
p1845
S'ffff7-3'
p1846
sS'31ad1a73583f2d44e741747e4fc4dbe0_3188'
p1847
S'31ad1-1'
p1848
sS'fffd1ebbf1faba967ab6e4d64d8d23f0_3048'
p1849
S'fffd1-2'
p1850
sS'fff47004caa5598f4b98907239d45120_3168'
p1851
S'fff47-2'
p1852
sS'331f0d1b3e25f7a3921642c26380f09b_3196'
p1853
S'331f0-1'
p1854
sS'fffbd3c48fd577c986b02f6272071f90_3112'
p1855
S'fffbd-1'
p1856
sS'fffe9e070875e84cc8090d8a15c7a6b0_3092'
p1857
S'fffe9-4'
p1858
sS'ff07a4eccc209b35c5b0d5eee38d96c0_IE_3396'
p1859
S'ff07a-4'
p1860
sS'bc7f15b89bbd891f95425abb4f3b8c30_3204'
p1861
S'bc7f1-2'
p1862
sS'feffaf0e1f17bef7be07d10b0083fd80_3076'
p1863
S'feffa-1'
p1864
sS'fffbabd757e1496ab807444ff08656e0_3156'
p1865
S'fffba-1'
p1866
sS'ffa33e3d595a1801bb306615fe082b30_3276'
p1867
S'ffa33-1'
p1868
sS'fff9f925e68f9047368563968c11a730_3292'
p1869
S'fff9f-2'
p1870
sS'ff594ef320881c386b8286996aaa2ba0_3220'
p1871
S'ff594-1'
p1872
sS'fffb41c114e3c30249ecdd2b3d449910_3172'
p1873
S'fffb4-3'
p1874
sS'ffda81db1b4cfcd30ba3e07c0ccbd1c0_2972'
p1875
S'ffda8-3'
p1876
sS'ffefbd576b730687e9bf56de777a2330_WBTRNU_3260'
p1877
S'ffefb-2'
p1878
sS'a26b2ba079e8616c8ce35f3533bc45ec_3140'
p1879
S'a26b2-1'
p1880
sS'ffdb2677884ac3b6feb1b436747b5f70_3204'
p1881
S'ffdb2-3'
p1882
sS'fffbd4a6e48a16038864b418d2f290f0_3152'
p1883
S'fffbd-3'
p1884
sS'fff669f3bb3ec4c7ae6ad373cf42d2e0_3280'
p1885
S'fff66-6'
p1886
sS'1a0f80a1d1f2216f565df318a4356b50_3276'
p1887
S'1a0f8-1'
p1888
sS'fffda772e9682b5cd713a1aff6bebe71_3324'
p1889
S'fffda-10'
p1890
sS'ffffa131fa245abae651fa71ca9a4f60_3168'
p1891
S'ffffa-1'
p1892
sS'fff9c57c7cdf230ef9012d498b685a20_3068'
p1893
S'fff9c-1'
p1894
sS'a4f4fd555bcbfe6f62725a5599aee941_3096'
p1895
S'a4f4f-1'
p1896
sS'ff93d98dcbb9e143b3652ad10c1892b0_IE_3200'
p1897
S'ff93d-4'
p1898
sS'ff7d1ed012ac7d9fb2e448281215d170_3192'
p1899
S'ff7d1-1'
p1900
sS'0c494687e1a01a7e3eefc541f0a91d50_3172'
p1901
S'0c494-3'
p1902
sS'ffff3114452f4132582ee9a862011510_3180'
p1903
S'ffff3-1'
p1904
sS'b81120889b5fe4e7b0080e7c5c0413f0_3120'
p1905
S'b8112-1'
p1906
sS'a2c9cd82e2c0388d6d4b4dcbd5895a48_3184'
p1907
S'a2c9c-1'
p1908
sS'fffebd5a2d4f2072665a3592e44a8600_3212'
p1909
S'fffeb-1'
p1910
sS'ffe66ac9a651dc739ffbf4ffa2734430_3096'
p1911
S'ffe66-1'
p1912
sS'fffa6015fc8de75173092ba901d5c680_3188'
p1913
S'fffa6-1'
p1914
sS'a33580103ea07f5f24cbda7500c28781_3040'
p1915
S'a3358-1'
p1916
sS'fff926809a51a9aab09d82938eb4f574_3292'
p1917
S'fff92-2'
p1918
sS'0c494687e1a01a7e3eefc541f0a91d50_3284'
p1919
S'0c494-13'
p1920
sS'27f348177560314182f161d9ee90b999_3140'
p1921
S'27f34-1'
p1922
sS'ffc1cf1575c5dfa972cbfe0b5472ef30_3168'
p1923
S'ffc1c-4'
p1924
sS'fffac37ce221ef755719a068a453c880_3168'
p1925
S'fffac-2'
p1926
sS'35a2de57da22cd4d9674b6bfd282a9fc_3288'
p1927
S'35a2d-1'
p1928
sS'504084a3a098a94ac2cd6c1d2c6ed357_3092'
p1929
S'50408-1'
p1930
sS'060c18ffe4b4f8b47c90a2339533d622_3148'
p1931
S'060c1-1'
p1932
sS'fff99f74e33d0c97f4c32edabece23c0_3152'
p1933
S'fff99-2'
p1934
sS'fff819156bbd2450a255a3cc3ce4f4ce_3204'
p1935
S'fff81-3'
p1936
sS'340c63ed7d513d67cf007983d34e6f68_3032'
p1937
S'340c6-1'
p1938
sS'fff8c895416799891115ddde7329bbb0_3268'
p1939
S'fff8c-1'
p1940
sS'd47eecfdc44e101c2d7a2c81e6f21156_3176'
p1941
S'd47ee-1'
p1942
sS'ff1a143813ebc676066f76aee5e51e40_3368'
p1943
S'ff1a1-1'
p1944
sS'fffda772e9682b5cd713a1aff6bebe71_3272'
p1945
S'fffda-9'
p1946
sS'fff440e64edea20f4e63d60a5d0736b0_3220'
p1947
S'fff44-1'
p1948
sS'ff7c3f5adc9469fc2aed7cd727769d80_3272'
p1949
S'ff7c3-1'
p1950
sS'ff03ae9b53c57b4320d82b185480c340_3248'
p1951
S'ff03a-1'
p1952
sS'fffd7fe307e3d9e9e0860aca29a79b80_3168'
p1953
S'fffd7-5'
p1954
sS'a4756d0fb104b86ec1c6cbbb23a2c45b_3348'
p1955
S'a4756-3'
p1956
sS'fff73b9b76bf38eb5c91501165ea5090_3052'
p1957
S'fff73-3'
p1958
sS'ffffbac53ec8030806a27021c95164a0_3176'
p1959
S'ffffb-3'
p1960
sS'fffbe984a7ed27e86b744b38ad1d8de0_3088'
p1961
S'fffbe-1'
p1962
sS'ffb78883b9e7bb0249075ec0016d80d0_3256'
p1963
S'ffb78-1'
p1964
sS'fffe1e7b667a9ae17a22a0a9fe6f8f70_3512'
p1965
S'fffe1-17'
p1966
sS'ffdd217403c094e38058567d29215c40_3252'
p1967
S'ffdd2-4'
p1968
sS'fffb8cb718580ac0cff8f772da597615_3168'
p1969
S'fffb8-5'
p1970
sS'ffc1cf1575c5dfa972cbfe0b5472ef30_3180'
p1971
S'ffc1c-5'
p1972
sS'ff14cc094799b3026670686af64d7b60_3236'
p1973
S'ff14c-2'
p1974
sS'51d181bc9524248559dff26725b05bb8_3144'
p1975
S'51d18-1'
p1976
sS'ff3abb93b7e672a0a8b45977566c46b0_3084'
p1977
S'ff3ab-1'
p1978
sS'325e833996f116a6a24d5567ba2aefe3_3340'
p1979
S'325e8-1'
p1980
sS'ffd86f4be80eab78e12e4277039992b0_3200'
p1981
S'ffd86-1'
p1982
sS'109384695f396badeedd8e171b31b734_3184'
p1983
S'10938-1'
p1984
sS'fff7d4547f7b2193e05dde7e3619aaa0_3260'
p1985
S'fff7d-3'
p1986
sS'ffdbd2c8c2d7c3d02690378ac30fb170_3328'
p1987
S'ffdbd-3'
p1988
sS'd8762c8cea86083ce9a3aec9aedb109f_3008'
p1989
S'd8762-1'
p1990
sS'ffa3579999cd64f196c5a85e62163fc0_IE_3192'
p1991
S'ffa35-2'
p1992
sS'fff773b820254f701ba88b16e0447c60_3168'
p1993
S'fff77-2'
p1994
sS'ffe189289e765a331b9b4f04fbfc7bb0_3236'
p1995
S'ffe18-1'
p1996
sS'61fd4cac9f5429d14d015e7632e3514a_3244'
p1997
S'61fd4-1'
p1998
sS'fff0203b682aa62f1d93c7fbc37915f0_3176'
p1999
S'fff02-3'
p2000
sS'ffeb34f7748ac1d42a9ea9e522040480_3156'
p2001
S'ffeb3-1'
p2002
sS'd20135f6ce0705c0f627bd0d40d1448a_3208'
p2003
S'd2013-1'
p2004
sS'fff6cf061b8f8594b648e61616e9a3e0_3368'
p2005
S'fff6c-8'
p2006
sS'ff1433cbabd50ed2b27514e2358bd7c0_3172'
p2007
S'ff143-1'
p2008
sS'ff9d021686de8d7b7a1cd69cb3b414f0_3200'
p2009
S'ff9d0-1'
p2010
sS'ff10655612f7162511911d73d2c8d882_3080'
p2011
S'ff106-1'
p2012
sS'23377b24ad28def0c5954adcf74a8a05_3320'
p2013
S'23377-1'
p2014
sS'ffff2915f8f4ae0b7de3cbbd88dd3a40_3008'
p2015
S'ffff2-6'
p2016
sS'fff4a5a5dfd373648321b8c917d5251c_3264'
p2017
S'fff4a-2'
p2018
sS'ff626f2c5d4259ef7c2d2b92f150cfa0_3244'
p2019
S'ff626-1'
p2020
sS'fff3236a1ded79b7c1138fca11971f60_3236'
p2021
S'fff32-3'
p2022
sS'31031b0783dea6906977abae83ab022d_3284'
p2023
S'31031-2'
p2024
sS'd0c4bba46e68e0ff5efce1297faa3b49_3200'
p2025
S'd0c4b-2'
p2026
sS'ff64087e700cff04eece15767ad919b0_3184'
p2027
S'ff640-1'
p2028
sS'b7e52b14dc1dfa001e3c28b217b104d0_3388'
p2029
S'b7e52-16'
p2030
sS'11dbaa09f5b949c9d6e0db7e157cc860_3532'
p2031
S'11dba-11'
p2032
sS'4c73c216e72a1ec198cd99f4ee96d2d0_3264'
p2033
S'4c73c-8'
p2034
sS'28e17f1e110f3508ceb611839986a4f4_3208'
p2035
S'28e17-2'
p2036
sS'fff7cc648deea0712f1cced9f01ee4b0_3372'
p2037
S'fff7c-12'
p2038
sS'fffe1e7b667a9ae17a22a0a9fe6f8f70_3292'
p2039
S'fffe1-2'
p2040
sS'fff6da05279f6909e0c5445612c6bfc0_3168'
p2041
S'fff6d-2'
p2042
sS'b77f1865e955be2b1ffe866f54d2b261_3124'
p2043
S'b77f1-1'
p2044
sS'ff58f2eff81622cfde34962634c2b6d0_3132'
p2045
S'ff58f-1'
p2046
sS'c2dd0c2d9416183ab132052c7f389db9_3160'
p2047
S'c2dd0-1'
p2048
sS'fff04a44b4d3b6298f4012bde3f29e90_3172'
p2049
S'fff04-1'
p2050
sS'fffe1e7b667a9ae17a22a0a9fe6f8f70_3364'
p2051
S'fffe1-8'
p2052
sS'fff6e10b530975c473ec236a13cc71d0_3220'
p2053
S'fff6e-5'
p2054
sS'5169113d8207a5605ff57604a00c030a_2872'
p2055
S'51691-2'
p2056
sS'0708a8bcda4a62e4eb87abcfb1b65860_3296'
p2057
S'0708a-6'
p2058
sS'ffeaedd146b09f7434bffcf58d60ad20_2888'
p2059
S'ffeae-1'
p2060
sS'fff59de6968747d90360a320a3308f20_3136'
p2061
S'fff59-1'
p2062
sS'bc7f15b89bbd891f95425abb4f3b8c30_3368'
p2063
S'bc7f1-13'
p2064
sS'ffd59f1ac439ad3c1f2f08566d9e7390_3100'
p2065
S'ffd59-1'
p2066
sS'ffff0fb5fed019a0cdf8c0fc31c40260_3180'
p2067
S'ffff0-2'
p2068
sS'942a444c928e47cf47454eccbe5da352_3160'
p2069
S'942a4-1'
p2070
sS'fff85376c31aef03394672f4a066eb99_3284'
p2071
S'fff85-4'
p2072
sS'c32e9387f94c67a39d4c35b111302b0b_3140'
p2073
S'c32e9-1'
p2074
sS'fff9db8df5878fc4b6385905f1268790_3424'
p2075
S'fff9d-4'
p2076
sS'ff05f1f66151b0cfaf880ca3b2d70210_3200'
p2077
S'ff05f-1'
p2078
sS'ffede07462c60920e4d59e84b65b7030_3264'
p2079
S'ffede-1'
p2080
sS'fff6e10b530975c473ec236a13cc71d0_3168'
p2081
S'fff6e-2'
p2082
sS'ffff67f9d1641a891bb96a2d083a8f20_3168'
p2083
S'ffff6-6'
p2084
sS'a21ba6f7535b5d9728a16653a74efd00_3384'
p2085
S'a21ba-3'
p2086
sS'bc7f15b89bbd891f95425abb4f3b8c30_3216'
p2087
S'bc7f1-3'
p2088
sS'fffc41cf4ff1122e1cdd0e07b3c9ce00_3080'
p2089
S'fffc4-2'
p2090
sS'c55c1627f5bf9fc6d85ea6e8501dbf78_tmp_3116'
p2091
S'c55c1-6'
p2092
sS'fffb41c114e3c30249ecdd2b3d449910_3140'
p2093
S'fffb4-1'
p2094
sS'a5b40ff4ca9be61c6295fe8e6b5c7df4_3216'
p2095
S'a5b40-1'
p2096
sS'ffcd824ab158037e7b5784648fb8e310_3124'
p2097
S'ffcd8-1'
p2098
sS'b3f691d4f0fe5ac993b75b559046bdd5_3160'
p2099
S'b3f69-1'
p2100
sS'ffdcfda44534d16faf8c8c1080f9ce40_3180'
p2101
S'ffdcf-3'
p2102
sS'0172fef366185da8add30d714f346a35_3288'
p2103
S'0172f-1'
p2104
sS'fff733e7496283f8ad675d76005a8890_3112'
p2105
S'fff73-2'
p2106
sS'fff751922a607ed0888f9d23819cb4c0_3344'
p2107
S'fff75-7'
p2108
sS'0c494687e1a01a7e3eefc541f0a91d50_3160'
p2109
S'0c494-2'
p2110
sS'fff848baff72bd2d51b0526945288bd0_3164'
p2111
S'fff84-5'
p2112
sS'ffe076dbcd6262c213a14923dd3ee210_3128'
p2113
S'ffe07-1'
p2114
sS'b81120889b5fe4e7b0080e7c5c0413f0_3204'
p2115
S'b8112-6'
p2116
sS'ffdb1a0876abf01a7bac8ed5d2ebdb00_3168'
p2117
S'ffdb1-4'
p2118
sS'fffda772e9682b5cd713a1aff6bebe71_3644'
p2119
S'fffda-18'
p2120
sS'fff877770d3f1783a1e42c72c8dd12e0_3176'
p2121
S'fff87-1'
p2122
sS'ffff17053a3d28eec3fa97a94a246680_3224'
p2123
S'ffff1-4'
p2124
sS'ffe0667383c4a3afd4fb78fb83fb6320_3264'
p2125
S'ffe06-1'
p2126
sS'ff66622c062852d05cf03153fba762a0_3336'
p2127
S'ff666-1'
p2128
sS'0c494687e1a01a7e3eefc541f0a91d50_3296'
p2129
S'0c494-14'
p2130
sS'fffc0eed416e6137d966ce8151e31f90_3168'
p2131
S'fffc0-1'
p2132
sS'fff7a30dc5462a0e8044a83bc10cad00_3232'
p2133
S'fff7a-1'
p2134
sS'263bde02a8c2daa812ae145e9efcda4d_3232'
p2135
S'263bd-1'
p2136
sS'84870116484818d0428a2303dabdd37b_3176'
p2137
S'84870-1'
p2138
sS'2173f89db89fd55a2d92eb824cd6e4f4_2908'
p2139
S'2173f-1'
p2140
sS'fff330db53958c44e805c7c170463650_3200'
p2141
S'fff33-1'
p2142
sS'fff988e5deb6cc408bb8fbb9931e3630_3292'
p2143
S'fff98-4'
p2144
sS'905cc1fc0b25d293cc9c053c6e70919c_3252'
p2145
S'905cc-1'
p2146
sS'523bf273741a7c82eda8509ff5a350b4_3188'
p2147
S'523bf-1'
p2148
sS'80cf51208fbee22191e5590038b0df80_3272'
p2149
S'80cf5-9'
p2150
sS'ffff6ec5c1788be8a732ac012d8a4850_3116'
p2151
S'ffff6-7'
p2152
sS'd0aec3d90e153c188c76206a672014b7_3148'
p2153
S'd0aec-1'
p2154
sS'fffda772e9682b5cd713a1aff6bebe71_3260'
p2155
S'fffda-8'
p2156
sS'54269539f16af2bdac6ae146e1b934a1_3144'
p2157
S'54269-1'
p2158
sS'fffe4c7c2a714c4484de8a38564d76f0_3204'
p2159
S'fffe4-3'
p2160
sS'ff6ea9b7b4dbc4d91ca5f0197d49ce20_3252'
p2161
S'ff6ea-1'
p2162
sS'fffd8b29c3dd098db963012a44917d10_3152'
p2163
S'fffd8-2'
p2164
sS'ffe48b5a702ce1e7ea3c3851d56afe60_3372'
p2165
S'ffe48-11'
p2166
sS'fff9db8df5878fc4b6385905f1268790_3364'
p2167
S'fff9d-3'
p2168
sS'326a9a10efba0f8bf0354d4d0a7d30fd_3088'
p2169
S'326a9-1'
p2170
sS'305303294ae289f97ceacc37112afcba_3096'
p2171
S'30530-2'
p2172
sS'ffdd217403c094e38058567d29215c40_3260'
p2173
S'ffdd2-5'
p2174
sS'fff0203b682aa62f1d93c7fbc37915f0_3380'
p2175
S'fff02-14'
p2176
sS'5169113d8207a5605ff57604a00c030a_3028'
p2177
S'51691-4'
p2178
sS'31b164b4dc1d2744bf11183604572648_3336'
p2179
S'31b16-3'
p2180
sS'337da6c8942095e6f1359325676f05ef_3212'
p2181
S'337da-1'
p2182
sS'ffe7401885ef9576652a8274d7a93740_3276'
p2183
S'ffe74-1'
p2184
sS'fff4a5a5dfd373648321b8c917d5251c_3248'
p2185
S'fff4a-1'
p2186
sS'fffd7b7f3dde2d0bc0b20cb5d0d52740_3300'
p2187
S'fffd7-2'
p2188
sS'ffe3fd3aa2fe22c09db855a6295ec9a0_3156'
p2189
S'ffe3f-1'
p2190
sS'fffe7bb9328bddcaa7b660244274b2c7_3068'
p2191
S'fffe7-2'
p2192
sS'fff7cc648deea0712f1cced9f01ee4b0_3384'
p2193
S'fff7c-13'
p2194
sS'fffd7fe307e3d9e9e0860aca29a79b80_3252'
p2195
S'fffd7-6'
p2196
sS'd65cd3137858bb17f8b9b7fb0964815f_3148'
p2197
S'd65cd-2'
p2198
sS'0c494687e1a01a7e3eefc541f0a91d50_3356'
p2199
S'0c494-18'
p2200
sS'fff0203b682aa62f1d93c7fbc37915f0_3160'
p2201
S'fff02-2'
p2202
sS'b142b8399b09e535dc73a1924b0e5daa_3080'
p2203
S'b142b-1'
p2204
sS'fff8b5342ed5a81dc251c6dbdf67c470_3144'
p2205
S'fff8b-1'
p2206
sS'ffedc4505502cffe29797595dd1dc290_3292'
p2207
S'ffedc-1'
p2208
sS'fff89a99fa94bcb264a7f97de15025a0_3160'
p2209
S'fff89-1'
p2210
sS'ff93d98dcbb9e143b3652ad10c1892b0_3216'
p2211
S'ff93d-3'
p2212
sS'b55664cd1314cae5a3172a147c446a67_3296'
p2213
S'b5566-6'
p2214
sS'fffd3992a840bdd03383a6b0503d25f0_3272'
p2215
S'fffd3-2'
p2216
sS'ff07a4eccc209b35c5b0d5eee38d96c0_3288'
p2217
S'ff07a-1'
p2218
sS'ffe2a4b63d0ec54823d7d783118ed2a0_3128'
p2219
S'ffe2a-1'
p2220
sS'ffdb71225a8b67b45227185786f71bf0_3112'
p2221
S'ffdb7-1'
p2222
sS'fffa5540cace8716c5369459b2c4e2d0_3164'
p2223
S'fffa5-2'
p2224
sS'fff7de0a63e8793768d7c6b3583f7ce0_3256'
p2225
S'fff7d-9'
p2226
sS'fff3357d3bf495777ed8909a2a6fdcf0_3100'
p2227
S'fff33-2'
p2228
sS'ffff3a8233f091edde59b1321933d970_3220'
p2229
S'ffff3-3'
p2230
sS'fff07b9dfd00b3554909ee30c671d4d0_3188'
p2231
S'fff07-1'
p2232
sS'ff08082645665f33630663500a8262d0_3052'
p2233
S'ff080-1'
p2234
sS'fff77884c07585bf072a4955b641c530_3160'
p2235
S'fff77-3'
p2236
sS'32abc951d6c707d2036c9e2a50e5fcb6_2868'
p2237
S'32abc-2'
p2238
sS'808ab4f1cca8091b05d26f15f775c525_3140'
p2239
S'808ab-2'
p2240
sS'fff64fb9ecf74f016b8e33639a70eef0_3116'
p2241
S'fff64-1'
p2242
sS'ffded9f761bc0c02d306440c7b31b6a0_3164'
p2243
S'ffded-1'
p2244
sS'fffeab12697deecd6e76640a3a57b700_3212'
p2245
S'fffea-2'
p2246
sS'ff80a76c4020a379c9dd96688104c840_3188'
p2247
S'ff80a-1'
p2248
sS'005528c99846dfd84e7a29ae2cf18fd8_3184'
p2249
S'00552-1'
p2250
sS'337da6c8942095e6f1359325676f05ef_tmp_3364'
p2251
S'337da-8'
p2252
sS'b7e52b14dc1dfa001e3c28b217b104d0_3288'
p2253
S'b7e52-10'
p2254
sS'34659a10411968d7d954928aef20ae6a_3080'
p2255
S'34659-1'
p2256
sS'31031b0783dea6906977abae83ab022d_3252'
p2257
S'31031-1'
p2258
sS'b7e52b14dc1dfa001e3c28b217b104d0_3280'
p2259
S'b7e52-9'
p2260
sS'bc7f15b89bbd891f95425abb4f3b8c30_3352'
p2261
S'bc7f1-12'
p2262
sS'a21ba6f7535b5d9728a16653a74efd00_3424'
p2263
S'a21ba-6'
p2264
sS'fffe4e8fde7fa45e4ac364e5219d79f0_3192'
p2265
S'fffe4-5'
p2266
sS'5169113d8207a5605ff57604a00c030a_tmp_3064'
p2267
S'51691-9'
p2268
sS'fff671567d963cd1e3f9b2de2870ae30_3256'
p2269
S'fff67-1'
p2270
sS'bfa7aeec7e86b1880ef8b36dab550b30_3160'
p2271
S'bfa7a-1'
p2272
sS'ffda534293d53bbd05ea53de26578fb0_3232'
p2273
S'ffda5-1'
p2274
sS'fffcec8eaf56d7890e175239f3d2f848_3244'
p2275
S'fffce-1'
p2276
sS'fff6586e6446f894993a06eaa86204c0_3124'
p2277
S'fff65-2'
p2278
sS'ffdb1155cfb2ed65651fc2f363879320_malUsr_3176'
p2279
S'ffdb1-3'
p2280
sS'ff485fd70ef073885bf9c5e70a531c00_3196'
p2281
S'ff485-1'
p2282
sS'fff7e9232f2a8824d69152bf7c30c640_3224'
p2283
S'fff7e-2'
p2284
sS'5ee1ed1d1c3dbbb3e920e56229023080_3448'
p2285
S'5ee1e-10'
p2286
sS'23c7c4f6fc13fdcc9e0959aabfdafe0e_3092'
p2287
S'23c7c-1'
p2288
sS'a21ba6f7535b5d9728a16653a74efd00_3396'
p2289
S'a21ba-4'
p2290
sS'ff4619b80837fe59a100178db8293090_3220'
p2291
S'ff461-1'
p2292
sS'fff669f3bb3ec4c7ae6ad373cf42d2e0_3048'
p2293
S'fff66-5'
p2294
sS'fffdcabd6ad9651733453af81529e4d0_3152'
p2295
S'fffdc-1'
p2296
sS'c55c1627f5bf9fc6d85ea6e8501dbf78_tmp_3212'
p2297
S'c55c1-7'
p2298
sS'd695c2c7d9718238bd95b354a147c775_3164'
p2299
S'd695c-2'
p2300
sS'fff72f1fc3b01a0e09c786b8f69a2a60_3348'
p2301
S'fff72-4'
p2302
sS'fffc302c9c02a3e76c5ccdbd97e779f0_1352'
p2303
S'fffc3-1'
p2304
sS'fffdad9ed1971c2479e09aec94374390_3136'
p2305
S'fffda-20'
p2306
sS'5169113d8207a5605ff57604a00c030a_tmp_2956'
p2307
S'51691-7'
p2308
sS'ffb88571762e49c605cc54035cbb3510_3092'
p2309
S'ffb88-1'
p2310
sS'fffb41c114e3c30249ecdd2b3d449910_3156'
p2311
S'fffb4-2'
p2312
sS'ffeaf2a775e92ab6f95357dc03ca6460_3240'
p2313
S'ffeaf-1'
p2314
sS'fffc2e584df4d8f73d19f96993d42ea0_3180'
p2315
S'fffc2-2'
p2316
sS'fff751922a607ed0888f9d23819cb4c0_3196'
p2317
S'fff75-2'
p2318
sS'ffdd1ac442a0e1c245160b7ebb1e8150_3176'
p2319
S'ffdd1-1'
p2320
sS'ffe7c0e4a5164f0dff92a7c3c3905be0_3184'
p2321
S'ffe7c-1'
p2322
sS'ffe48b5a702ce1e7ea3c3851d56afe60_3416'
p2323
S'ffe48-13'
p2324
sS'fff5bb964a0b4bb7fd49a3ac0e7a8930_3264'
p2325
S'fff5b-1'
p2326
sS'ffe5a16e686d28ccc0d53059d24bf370_3356'
p2327
S'ffe5a-2'
p2328
sS'fffb452eb8e2353f284599ae183ffcb0_3228'
p2329
S'fffb4-7'
p2330
sS'fff6c78b8c8d55d0ad76d46e26f34c0d_3028'
p2331
S'fff6c-2'
p2332
sS'c408d44ff050d84a6679c88b6c156ca7_3212'
p2333
S'c408d-2'
p2334
sS'ff41e22f1b9257d7cced10bb57f8ebe0_3144'
p2335
S'ff41e-2'
p2336
sS'd5f408d4570f4d65c796bca3953704de_3204'
p2337
S'd5f40-1'
p2338
sS'83f04b9aebe38cb456cf68f206b0f688_3248'
p2339
S'83f04-1'
p2340
sS'fff0b549204d64b86a14fe1556ba6c80_3316'
p2341
S'fff0b-2'
p2342
sS'518c227fc67926213502da39d8d44fd6_tmp_3204'
p2343
S'518c2-6'
p2344
sS'33cc90da028fd1db12c21ac77b6c2532_3256'
p2345
S'33cc9-1'
p2346
sS'c1d930795f3c26cbdd2c22df3021c644_3248'
p2347
S'c1d93-1'
p2348
sS'ff20bb872541af93c983736396573690_3100'
p2349
S'ff20b-1'
p2350
sS'ffab3d610d78bb5dccc31bd787f62ce0_3116'
p2351
S'ffab3-1'
p2352
sS'fffe576944cf3e13b2b1e88f2fa59640_3272'
p2353
S'fffe5-1'
p2354
sS'fffda772e9682b5cd713a1aff6bebe71_3188'
p2355
S'fffda-4'
p2356
sS'fff094c9a2e1133bb888840dbe5bad00_3244'
p2357
S'fff09-1'
p2358
sS'fff409baa0c3e0516e3bcacdb33bb1f0_3152'
p2359
S'fff40-1'
p2360
sS'fffda772e9682b5cd713a1aff6bebe71_3180'
p2361
S'fffda-3'
p2362
sS'fff80e5f4fa34da72941729445708e10_3264'
p2363
S'fff80-6'
p2364
sS'fffc0eed416e6137d966ce8151e31f90_3208'
p2365
S'fffc0-2'
p2366
sS'ffef4bc89cee99b73af096085c78fef0_3216'
p2367
S'ffef4-1'
p2368
sS'ff4da785be5b4e2bdef83968a3b5a1b0_3168'
p2369
S'ff4da-1'
p2370
sS'0c494687e1a01a7e3eefc541f0a91d50_3332'
p2371
S'0c494-17'
p2372
sS'fffe27fba680f1af44419374742ee760_3264'
p2373
S'fffe2-2'
p2374
sS'ffedf10d19630402cf6070110a24cfa0_3244'
p2375
S'ffedf-1'
p2376
sS'ffb586a34299d6a57e74a44746179620_3164'
p2377
S'ffb58-1'
p2378
sS'2b0d1f7527e0191f190744e8a1e319c3_3052'
p2379
S'2b0d1-5'
p2380
sS'fffed8d8b8ccbd65f5ea16e54adb61d0_3244'
p2381
S'fffed-5'
p2382
sS'ff90e322bd20f94be55e868804d73520_3324'
p2383
S'ff90e-3'
p2384
sS'ffe48b5a702ce1e7ea3c3851d56afe60_3184'
p2385
S'ffe48-1'
p2386
sS'ffea985b9cb20ec5dc60139ffff29d10_3176'
p2387
S'ffea9-1'
p2388
sS'90489a23cb732ae082adf3def0b5d243_3212'
p2389
S'90489-1'
p2390
sS'0c494687e1a01a7e3eefc541f0a91d50_3244'
p2391
S'0c494-9'
p2392
sS'fff80e5f4fa34da72941729445708e10_3280'
p2393
S'fff80-8'
p2394
sS'246920c3ec29d419549fadefd78c30e4_3396'
p2395
S'24692-3'
p2396
sS'fff80e5f4fa34da72941729445708e10_3288'
p2397
S'fff80-9'
p2398
sS'a1e68c58d8bce6639dd5ec2e4bccb79c_3224'
p2399
S'a1e68-1'
p2400
sS'fff9ff3d1a1d5dc84bb03fe3ea4dff06_3108'
p2401
S'fff9f-3'
p2402
sS'22e2fe27211a28c8cc5b67d498824743_3280'
p2403
S'22e2f-1'
p2404
sS'51921c88a21449ac0b5bbf3c1ddc2b25_3140'
p2405
S'51921-1'
p2406
sS'fffb1bef367cd3542a0e7c96c88e46d0_3052'
p2407
S'fffb1-1'
p2408
sS'337da6c8942095e6f1359325676f05ef_3228'
p2409
S'337da-2'
p2410
sS'ff5dc38249d6dbb276038f4edb93b440_3196'
p2411
S'ff5dc-1'
p2412
sS'b3b15c3261e48f4d001b08fc900f40af_3152'
p2413
S'b3b15-1'
p2414
sS'52cd8c9cc8c4e794e9243d787853f556_3100'
p2415
S'52cd8-2'
p2416
sS'd5aafe1af9449d87262a5016f0993d99_3216'
p2417
S'd5aaf-2'
p2418
sS'a4756d0fb104b86ec1c6cbbb23a2c45b_tmp_3452'
p2419
S'a4756-9'
p2420
sS'fff3acc5d4f9a2868c7b5427c2adc2b0_3344'
p2421
S'fff3a-5'
p2422
sS'bc7f15b89bbd891f95425abb4f3b8c30_3420'
p2423
S'bc7f1-16'
p2424
sS'ffeeb351089c255e152dd2c79c55b250_3256'
p2425
S'ffeeb-1'
p2426
sS'463cbb1e76e14a1c487d8109cbeb0e30_3184'
p2427
S'463cb-1'
p2428
sS'ffe46b6d45223ea22eeebabe33d5d490_3156'
p2429
S'ffe46-1'
p2430
sS'fffd3e8b8e031abcb87ff472405067d0_3092'
p2431
S'fffd3-6'
p2432
sS'ff9d70e87aaadba75b07f661af586f60_3120'
p2433
S'ff9d7-1'
p2434
sS'fffeac373c39ed7acbc589376b76b820_3192'
p2435
S'fffea-3'
p2436
sS'fff832b43dd3c9801399fa092c6148e0_3156'
p2437
S'fff83-5'
p2438
sS'a3d453875aea8d2def1aa20f22bd33dc_3160'
p2439
S'a3d45-1'
p2440
sS'd5229b1ba9ac805a1e7c0b871bd1eb96_3148'
p2441
S'd5229-3'
p2442
sS'fff0203b682aa62f1d93c7fbc37915f0_3284'
p2443
S'fff02-9'
p2444
sS'dc16fe01945207255f88fd0651c89e90_3252'
p2445
S'dc16f-1'
p2446
sS'fff7cc648deea0712f1cced9f01ee4b0_3280'
p2447
S'fff7c-7'
p2448
sS'c342a9a6e8f8beee266677330812b11a_3176'
p2449
S'c342a-1'
p2450
sS'fff8cd07415fc5297ee7dec0d0d7eb00_3100'
p2451
S'fff8c-6'
p2452
sS'fff3236a1ded79b7c1138fca11971f60_3252'
p2453
S'fff32-5'
p2454
sS'11dbaa09f5b949c9d6e0db7e157cc860_3284'
p2455
S'11dba-1'
p2456
sS'fff7de0a63e8793768d7c6b3583f7ce0_3244'
p2457
S'fff7d-8'
p2458
sS'fffc79bf3638718c197d02f44e1272d0_3148'
p2459
S'fffc7-1'
p2460
sS'4c73c216e72a1ec198cd99f4ee96d2d0_3204'
p2461
S'4c73c-4'
p2462
sS'fffaa4038098f40ce01719a17875f5b0_3140'
p2463
S'fffaa-1'
p2464
sS'fffade5b1d5c9ef6d48e91e8dbe3e9b0_3204'
p2465
S'fffad-2'
p2466
sS'b55664cd1314cae5a3172a147c446a67_3244'
p2467
S'b5566-4'
p2468
sS'71adaf8dc7f794a129fd5d27069e1bd0_3180'
p2469
S'71ada-1'
p2470
sS'a3eab7ad23bc677f8513f374ba596b92_3256'
p2471
S'a3eab-1'
p2472
sS'fff6e10b530975c473ec236a13cc71d0_3332'
p2473
S'fff6e-11'
p2474
sS'29fa30bb9dd612507b28bf4ec36f0372_3224'
p2475
S'29fa3-2'
p2476
sS'ffe5e3a2f1cd7de2603f80ff57f8f950_3156'
p2477
S'ffe5e-4'
p2478
sS'33d9e187ca5c19d9e6ff43cf7705e72b_3244'
p2479
S'33d9e-1'
p2480
sS'fff6e10b530975c473ec236a13cc71d0_3204'
p2481
S'fff6e-4'
p2482
sS'fffe1e7b667a9ae17a22a0a9fe6f8f70_3384'
p2483
S'fffe1-9'
p2484
sS'd11e481c9d30e80ffc55c706ffb30f11_3164'
p2485
S'd11e4-1'
p2486
sS'2b0d1f7527e0191f190744e8a1e319c3_2860'
p2487
S'2b0d1-2'
p2488
sS'c1145db43a83fa9721160a9b0ba43a63_3160'
p2489
S'c1145-1'
p2490
sS'fff6c2061156acb1af15e00e151fac70_3216'
p2491
S'fff6c-1'
p2492
sS'80cf51208fbee22191e5590038b0df80_3188'
p2493
S'80cf5-3'
p2494
sS'bc7f15b89bbd891f95425abb4f3b8c30_3188'
p2495
S'bc7f1-1'
p2496
sS'ff7e3a8c2daff738dd511ac1a8b1baa0_3340'
p2497
S'ff7e3-1'
p2498
sS'ffe1e722aad2a09df990b9985b4a6df0_3240'
p2499
S'ffe1e-1'
p2500
sS'fff5d61c0f8dfeaa16f3b80cf7eaa8d0_3180'
p2501
S'fff5d-1'
p2502
sS'940f7e9ab19be7a9ce0008a6e6b01f9f_3216'
p2503
S'940f7-1'
p2504
sS'3038105836891996b8ad992b745ccb70_3252'
p2505
S'30381-2'
p2506
sS'ffa0fa4008da77739bd046a1c0cc3290_2840'
p2507
S'ffa0f-1'
p2508
sS'ffff809e7b5a3284ce924696241be7a0_3128'
p2509
S'ffff8-1'
p2510
sS'ffe83caf42822dd3c1a3690db5caf740_3156'
p2511
S'ffe83-1'
p2512
sS'ffe2cc3ef9b970c123264395572aa5c0_3044'
p2513
S'ffe2c-1'
p2514
sS'ff2388c45e9418a0c27eb5fbc5da84d0_3268'
p2515
S'ff238-1'
p2516
sS'a41cc0879fc07afd76ada851d99667e4_3200'
p2517
S'a41cc-1'
p2518
sS'fffb2dc5ec57200b1ae829d32ced9b19_3176'
p2519
S'fffb2-2'
p2520
sS'a0ceb22ed87df9019f39c5c135a58c17_3228'
p2521
S'a0ceb-2'
p2522
sS'fff0a16f5de44a83bcfdd6d572443470_3264'
p2523
S'fff0a-1'
p2524
sS'ffff948db69f1d5369a5f01462b40030_3052'
p2525
S'ffff9-3'
p2526
sS'fffc302c9c02a3e76c5ccdbd97e779f0_3092'
p2527
S'fffc3-2'
p2528
sS'82cf1e67ed155da7e89fc4f49b97050d_3228'
p2529
S'82cf1-1'
p2530
sS'ffeb3e1830c369456f05c63e78851370_3108'
p2531
S'ffeb3-2'
p2532
sS'fff6e10b530975c473ec236a13cc71d0_3144'
p2533
S'fff6e-1'
p2534
sS'2a3f0f96e4cc7ae13558d80d99426233_3240'
p2535
S'2a3f0-2'
p2536
sS'fff80ae9338aec1e979ad1ddeb060560_3184'
p2537
S'fff80-1'
p2538
sS'a4207e48739ab4da384acaeebcba0c66_3184'
p2539
S'a4207-2'
p2540
sS'ffe6ff3bc571034e680d824eb9f97670_3328'
p2541
S'ffe6f-5'
p2542
sS'ffe07b5bd3117daa6156640b932c6100_3208'
p2543
S'ffe07-2'
p2544
sS'fff7d135a81e71c13bc8abb1f8a70720_3184'
p2545
S'fff7d-1'
p2546
sS'fffd536b713e4cbd9cbdc92285daa550_3088'
p2547
S'fffd5-1'
p2548
sS'ff485fd70ef073885bf9c5e70a531c00_3236'
p2549
S'ff485-2'
p2550
sS'ffe48b5a702ce1e7ea3c3851d56afe60_3400'
p2551
S'ffe48-12'
p2552
sS'ffdbd293d2d8bdef70c8a9b92c806860_2800'
p2553
S'ffdbd-1'
p2554
sS'ffdbe1d3ac805366fe4aa89dff772640_3236'
p2555
S'ffdbe-1'
p2556
sS'ffffcf6d4f65461b7f08106aabb1cc80_3324'
p2557
S'ffffc-4'
p2558
sS'a21ba6f7535b5d9728a16653a74efd00_3344'
p2559
S'a21ba-2'
p2560
sS'c341fcd8b52a319cd6f2099776a937d0_3192'
p2561
S'c341f-1'
p2562
sS'fff0a16f5de44a83bcfdd6d572443470_3288'
p2563
S'fff0a-2'
p2564
sS'52cd8c9cc8c4e794e9243d787853f556_tmp_3236'
p2565
S'52cd8-8'
p2566
sS'fff8a5e17a5a72a01375ef2c6a0d5560_3184'
p2567
S'fff8a-2'
p2568
sS'ff06cc7bc318d095aaba4a9972f86950_3276'
p2569
S'ff06c-1'
p2570
sS'fff79796b43950536ad7f5a74389f8e0_3192'
p2571
S'fff79-1'
p2572
sS'fff33ec06676fdc6e9a17a41b3f9ff00_3140'
p2573
S'fff33-4'
p2574
sS'fff975f92de5ad7b351e5247308b93d0_3180'
p2575
S'fff97-1'
p2576
sS'5177141306a32b6af318f0aa674c716b_3252'
p2577
S'51771-1'
p2578
sS'd288e9a5bbd77711399f985584d374a6_3140'
p2579
S'd288e-1'
p2580
sS'52cd8c9cc8c4e794e9243d787853f556_3244'
p2581
S'52cd8-4'
p2582
sS'ff3ecf142a1a8c043616beaf3123a4d0_3268'
p2583
S'ff3ec-1'
p2584
sS'fff80e5f4fa34da72941729445708e10_3272'
p2585
S'fff80-7'
p2586
sS'ffdfa9b9d02e87e0566d2648f5f657a0_3136'
p2587
S'ffdfa-1'
p2588
sS'd6d1946ff60a8884a6dbdefe4e89771e_3076'
p2589
S'd6d19-1'
p2590
sS'ffc5886918f15726eaf9feca468b0560_3324'
p2591
S'ffc58-1'
p2592
sS'd293b63ea6e67eb88cd85980e25c3642_3188'
p2593
S'd293b-1'
p2594
sS'fffe64fb1c07c57a058c121ba14a8610_3216'
p2595
S'fffe6-1'
p2596
sS'fff8b7809a01a33e3d61ffefc209b390_3312'
p2597
S'fff8b-2'
p2598
sS'861d9037f8ec7b8b2d01dad44ec6a524_3144'
p2599
S'861d9-1'
p2600
sS'ff4c85a4c95549ff240192ac07cf1ba0_3276'
p2601
S'ff4c8-2'
p2602
sS'ffea194c1ff69bb5d13c357832245270_3272'
p2603
S'ffea1-1'
p2604
sS'fff6e10b530975c473ec236a13cc71d0_3456'
p2605
S'fff6e-16'
p2606
sS'fffab520aaa2e206ad4c822796613f10_3276'
p2607
S'fffab-2'
p2608
sS'ffe45216ee1d537dadf7ecdce88d0410_3088'
p2609
S'ffe45-4'
p2610
sS'ff2f7fbfa0e3e9d7564f89b4ac2aac40_3136'
p2611
S'ff2f7-1'
p2612
sS'fffda772e9682b5cd713a1aff6bebe71_3680'
p2613
S'fffda-19'
p2614
sS'ffe45216ee1d537dadf7ecdce88d0410_3080'
p2615
S'ffe45-3'
p2616
sS'42c14a66a3c10f9eb92d155313ceb8d0_3160'
p2617
S'42c14-1'
p2618
sS'ff108b3f48fb494473afd07acf12e5f0_880'
p2619
S'ff108-1'
p2620
sS'ffdb3c00f7cc7c25f8240eed3a1d4a50_2876'
p2621
S'ffdb3-5'
p2622
sS'ffbcfbff74371aa8c2ae254ba7386e70_3212'
p2623
S'ffbcf-1'
p2624
sS'fffd0d4ba5a5191c99c4230a9b2fc930_3200'
p2625
S'fffd0-2'
p2626
sS'ffdb1155cfb2ed65651fc2f363879320_3352'
p2627
S'ffdb1-1'
p2628
sS'ffc1cf1575c5dfa972cbfe0b5472ef30_3084'
p2629
S'ffc1c-1'
p2630
sS'0c494687e1a01a7e3eefc541f0a91d50_3256'
p2631
S'0c494-10'
p2632
sS'fff7dcb3463f5f99f158b0485113b850_3032'
p2633
S'fff7d-4'
p2634
sS'fffc961fc93038946cc1ea6a0dab0dc0_3180'
p2635
S'fffc9-2'
p2636
sS'337da6c8942095e6f1359325676f05ef_3432'
p2637
S'337da-6'
p2638
sS'fff0203b682aa62f1d93c7fbc37915f0_3360'
p2639
S'fff02-13'
p2640
sS'a0f2e27b28835c96377b73b007c09f15_3148'
p2641
S'a0f2e-1'
p2642
sS'fff2e49743064367fc7612168d185480_3156'
p2643
S'fff2e-1'
p2644
sS'ffa3579999cd64f196c5a85e62163fc0_3172'
p2645
S'ffa35-1'
p2646
sS'bc7f15b89bbd891f95425abb4f3b8c30_3436'
p2647
S'bc7f1-17'
p2648
sS'ffff2e5ed046a83df329f7ba328cac00_3208'
p2649
S'ffff2-8'
p2650
sS'fffda772e9682b5cd713a1aff6bebe71_3340'
p2651
S'fffda-12'
p2652
sS'ffd3bca013923713576c1873b81b2470_IE_2876'
p2653
S'ffd3b-2'
p2654
sS'fff7cc648deea0712f1cced9f01ee4b0_3168'
p2655
S'fff7c-1'
p2656
sS'31b164b4dc1d2744bf11183604572648_tmp_3384'
p2657
S'31b16-8'
p2658
sS'fff0203b682aa62f1d93c7fbc37915f0_428'
p2659
S'fff02-17'
p2660
sS'ff6ce1bbedf08fdc9cd992f263f05550_3076'
p2661
S'ff6ce-1'
p2662
sS'ff9882cdd84c93aecdea1c3d641c7600_3240'
p2663
S'ff988-1'
p2664
sS'0c494687e1a01a7e3eefc541f0a91d50_3304'
p2665
S'0c494-15'
p2666
sS'ffdab614aa1cb1504de7b97dc51dd120_3244'
p2667
S'ffdab-1'
p2668
sS'84dffc6d32371bbbfa701551e363af30_3212'
p2669
S'84dff-1'
p2670
sS'fff28f41a876452ea040c7dbbc8f9b40_3196'
p2671
S'fff28-1'
p2672
sS'fffc4faedbf0a97b03f1ec4c4f277fe0_3108'
p2673
S'fffc4-5'
p2674
sS'ffdf94033244300f30409aae9053dad0_3072'
p2675
S'ffdf9-1'
p2676
sS'fff7cc648deea0712f1cced9f01ee4b0_3292'
p2677
S'fff7c-8'
p2678
sS'fffd2ffbeba7618a2cb8a365de3e7a60_3208'
p2679
S'fffd2-4'
p2680
sS'23ed4c1867cf18a06fed1b8fa7ec523e_3192'
p2681
S'23ed4-1'
p2682
sS'fff3236a1ded79b7c1138fca11971f60_3244'
p2683
S'fff32-4'
p2684
sS'a4c97b2f23a8983d0a43301dfb19db69_3180'
p2685
S'a4c97-1'
p2686
sS'ff237c0e025a1481b140964d8a98f400_3248'
p2687
S'ff237-1'
p2688
sS'fffd7d5f853e4f1a0691b0451cc4b900_3408'
p2689
S'fffd7-4'
p2690
sS'fff429f8230f3507f720a6c0b97ccc60_3204'
p2691
S'fff42-1'
p2692
sS'ff5216f17439209fb0bba4943948e580_3320'
p2693
S'ff521-2'
p2694
sS'fff7cc648deea0712f1cced9f01ee4b0_3344'
p2695
S'fff7c-11'
p2696
sS'4c73c216e72a1ec198cd99f4ee96d2d0_3236'
p2697
S'4c73c-6'
p2698
sS'fffae342dbd287cdda3c60217d5c7af0_3396'
p2699
S'fffae-4'
p2700
sS'ffe74ad543c00f84ab1ccff4a978ed10_3252'
p2701
S'ffe74-3'
p2702
sS'808ab4f1cca8091b05d26f15f775c525_3120'
p2703
S'808ab-1'
p2704
sS'fff28f41a876452ea040c7dbbc8f9b40_3220'
p2705
S'fff28-2'
p2706
sS'ffa7866a1b36618cad84191fcb9f5a20_3244'
p2707
S'ffa78-2'
p2708
sS'fff64fb9ecf74f016b8e33639a70eef0_3172'
p2709
S'fff64-2'
p2710
sS'ffdf0237bddc025feac7f49f0d8abd80_3236'
p2711
S'ffdf0-1'
p2712
sS'4c73c216e72a1ec198cd99f4ee96d2d0_3304'
p2713
S'4c73c-10'
p2714
sS'71adaf8dc7f794a129fd5d27069e1bd0_3264'
p2715
S'71ada-2'
p2716
sS'ffe5e3a2f1cd7de2603f80ff57f8f950_3144'
p2717
S'ffe5e-3'
p2718
sS'c55c1627f5bf9fc6d85ea6e8501dbf78_3336'
p2719
S'c55c1-5'
p2720
sS'c55c1627f5bf9fc6d85ea6e8501dbf78_3288'
p2721
S'c55c1-4'
p2722
sS'ffea4eb7a22be131b1ac2348bccee131_3404'
p2723
S'ffea4-2'
p2724
sS'fff6e10b530975c473ec236a13cc71d0_3320'
p2725
S'fff6e-10'
p2726
sS'5ee1ed1d1c3dbbb3e920e56229023080_3284'
p2727
S'5ee1e-5'
p2728
sS'6aec05263229f2dacd5425863a7d81f0_3084'
p2729
S'6aec0-1'
p2730
sS'51b69c710ade0340e86daf70c8a07e12_3264'
p2731
S'51b69-2'
p2732
sS'fffaefa2c2523f9e45da6a3af8f91850_3104'
p2733
S'fffae-8'
p2734
sS'fffe27fba680f1af44419374742ee760_3228'
p2735
S'fffe2-1'
p2736
sS'd1f35ba9bee466133d93bf161ad6172b_3152'
p2737
S'd1f35-1'
p2738
sS'fffb0fc17cca324f4b7ea83b54d71010_3188'
p2739
S'fffb0-1'
p2740
sS'5169113d8207a5605ff57604a00c030a_2840'
p2741
S'51691-1'
p2742
sS'81ec8dd3f588bacf6fe3ca4744dabd85_3108'
p2743
S'81ec8-1'
p2744
sS'fff8fe21eaa6661bc12902dce468ef60_3220'
p2745
S'fff8f-1'
p2746
sS'236740b7cbf84cc3e11e009499392313_3164'
p2747
S'23674-1'
p2748
sS'3038105836891996b8ad992b745ccb70_3244'
p2749
S'30381-1'
p2750
sS'fb9ad9b1c5a2e24a61735895690849a0_1800'
p2751
S'fb9ad-1'
p2752
sS'5ee1ed1d1c3dbbb3e920e56229023080_3468'
p2753
S'5ee1e-11'
p2754
sS'fff7b1c45414662c5f5043af255c7130_3104'
p2755
S'fff7b-1'
p2756
sS'4c73c216e72a1ec198cd99f4ee96d2d0_3160'
p2757
S'4c73c-1'
p2758
sS'fff9cb50dff230b70c0723ef6ce7cbe0_3112'
p2759
S'fff9c-2'
p2760
sS'fff72f1fc3b01a0e09c786b8f69a2a60_3164'
p2761
S'fff72-1'
p2762
sS'fffc2d4313d3622210f3bae7eabf0590_3128'
p2763
S'fffc2-1'
p2764
sS'fffe962a0aba7faf4a217f499a43bbf2_3148'
p2765
S'fffe9-2'
p2766
sS'fff85376c31aef03394672f4a066eb99_3320'
p2767
S'fff85-5'
p2768
sS'fffcec8eaf56d7890e175239f3d2f848_3352'
p2769
S'fffce-3'
p2770
sS'fff882723a5c8170840f97ddb8cffa00_3220'
p2771
S'fff88-1'
p2772
sS'b45a2b6017d85fba450c60e97994367d_3264'
p2773
S'b45a2-1'
p2774
sS'b7e52b14dc1dfa001e3c28b217b104d0_3188'
p2775
S'b7e52-1'
p2776
sS'fff80b8846f09723ff5c409c9a181f9f_3208'
p2777
S'fff80-4'
p2778
sS'fff351ad66140a5e49eb323c4bf53700_3192'
p2779
S'fff35-4'
p2780
sS'fffe68fde0fc0ac934f4c4c9485fe980_3224'
p2781
S'fffe6-2'
p2782
sS'ff41e22f1b9257d7cced10bb57f8ebe0_3092'
p2783
S'ff41e-1'
p2784
sS'ffc3f4fe005d840f752e92fe8fa5ce20_3172'
p2785
S'ffc3f-1'
p2786
sS'ffe7a9d0baad5c7154c43f99863a79d0_3180'
p2787
S'ffe7a-1'
p2788
sS'ffed8955262630e6c953bd459f600600_3200'
p2789
S'ffed8-1'
p2790
sS'fff33ec06676fdc6e9a17a41b3f9ff00_3152'
p2791
S'fff33-5'
p2792
sS'2a3f0f96e4cc7ae13558d80d99426233_3296'
p2793
S'2a3f0-3'
p2794
sS'ffa33e3d595a1801bb306615fe082b30_3296'
p2795
S'ffa33-2'
p2796
sS'fff850f5b60617e3a9bcda5c4af4c9a0_3220'
p2797
S'fff85-2'
p2798
sS'ffe48b5a702ce1e7ea3c3851d56afe60_3356'
p2799
S'ffe48-10'
p2800
sS'ff66622c062852d05cf03153fba762a0_3360'
p2801
S'ff666-2'
p2802
sS'ffe1b871e437416ed7c1373474cf2130_3264'
p2803
S'ffe1b-1'
p2804
sS'fff8ca54b676951797bf85324d808510_3216'
p2805
S'fff8c-3'
p2806
sS'ffbb97327d010e870181669803e25f20_3228'
p2807
S'ffbb9-1'
p2808
sS'957713c3f6e5549e5f24661aefbb5edd_3144'
p2809
S'95771-1'
p2810
sS'22f1e10e563130d67bb55961a7271447_3188'
p2811
S'22f1e-1'
p2812
sS'fffda772e9682b5cd713a1aff6bebe71_3232'
p2813
S'fffda-5'
p2814
sS'ffdfa9b9d02e87e0566d2648f5f657a0_3212'
p2815
S'ffdfa-3'
p2816
sS'a1fd67af4edfb346a8c8abaab5e1cc7b_3128'
p2817
S'a1fd6-1'
p2818
sS'518c227fc67926213502da39d8d44fd6_3440'
p2819
S'518c2-5'
p2820
sS'ff55d22b7d304dbb29c364d5e6ef5010_3300'
p2821
S'ff55d-1'
p2822
sS'2a3f0f96e4cc7ae13558d80d99426233_3124'
p2823
S'2a3f0-1'
p2824
sS'fff25b0344d0a9029170375b867ec950_3228'
p2825
S'fff25-1'
p2826
sS'ffedf10d19630402cf6070110a24cfa0_3260'
p2827
S'ffedf-2'
p2828
sS'0c494687e1a01a7e3eefc541f0a91d50_3316'
p2829
S'0c494-16'
p2830
sS'fffd0d4ba5a5191c99c4230a9b2fc930_3236'
p2831
S'fffd0-3'
p2832
sS'ff3b9aaae31199a5a4093000b06eb2bb_3228'
p2833
S'ff3b9-1'
p2834
sS'ffdb3c00f7cc7c25f8240eed3a1d4a50_2844'
p2835
S'ffdb3-3'
p2836
sS'fff0a77de7262709003ae190190acaf0_3324'
p2837
S'fff0a-4'
p2838
sS'fffb8cb718580ac0cff8f772da597615_3120'
p2839
S'fffb8-4'
p2840
sS'fff094c9a2e1133bb888840dbe5bad00_3536'
p2841
S'fff09-2'
p2842
sS'0c494687e1a01a7e3eefc541f0a91d50_3264'
p2843
S'0c494-11'
p2844
sS'ffff85f176da1cfec1b5953a8882d210_3112'
p2845
S'ffff8-3'
p2846
sS'ffdd217403c094e38058567d29215c40_3212'
p2847
S'ffdd2-2'
p2848
sS'ff90e2b30134aa53546775a8ccc62e60_3064'
p2849
S'ff90e-1'
p2850
sS'ff2388c45e9418a0c27eb5fbc5da84d0_3292'
p2851
S'ff238-2'
p2852
sS'ffe4d2ce16ca4079177bd63ce3a6fbd0_3212'
p2853
S'ffe4d-1'
p2854
sS'ffdbd2c8c2d7c3d02690378ac30fb170_3256'
p2855
S'ffdbd-2'
p2856
sS'337da6c8942095e6f1359325676f05ef_3240'
p2857
S'337da-3'
p2858
sS'9e7130b93eec895537ee9b9561c3b780_3224'
p2859
S'9e713-1'
p2860
sS'fff3acc5d4f9a2868c7b5427c2adc2b0_3368'
p2861
S'fff3a-6'
p2862
sS'ffdabec2455576fdce67e5bb7ee0e110_3148'
p2863
S'ffdab-2'
p2864
sS'fff41d5d937463575f001ce28bee59a0_3140'
p2865
S'fff41-1'
p2866
sS'bc7f15b89bbd891f95425abb4f3b8c30_3408'
p2867
S'bc7f1-15'
p2868
sS'c3ea3ad31e662953f0fcd1c62c50b130_3156'
p2869
S'c3ea3-1'
p2870
sS'ffb70cc95d05b27f11ff686643cf10d0_IE_3156'
p2871
S'ffb70-2'
p2872
sS'fffaf4cd258eb7957e6931b5196fecf0_3152'
p2873
S'fffaf-1'
p2874
sS'a4756d0fb104b86ec1c6cbbb23a2c45b_3412'
p2875
S'a4756-4'
p2876
sS'ffdb1155cfb2ed65651fc2f363879320_3388'
p2877
S'ffdb1-2'
p2878
sS'fff832b43dd3c9801399fa092c6148e0_3172'
p2879
S'fff83-6'
p2880
sS'ff85d3f8443ba214f3adf4a6227aa5a5_3340'
p2881
S'ff85d-2'
p2882
sS'ffc06a8987fe31c541897986cf71dae0_3176'
p2883
S'ffc06-1'
p2884
sS'833562ee3e3a2569fe42a303d5619464_3036'
p2885
S'83356-1'
p2886
sS'fff80ea0a648bee1b571b35dbaf37b60_3220'
p2887
S'fff80-15'
p2888
sS'03c009b451e012002513513a5d7e1b00_3444'
p2889
S'03c00-2'
p2890
sS'5116f8d8c31a4e458c4a633c04082ebd_3208'
p2891
S'5116f-1'
p2892
sS'fff429f8230f3507f720a6c0b97ccc60_3232'
p2893
S'fff42-2'
p2894
sS'fff98513f7dc548029ff5e741b7569c0_3196'
p2895
S'fff98-1'
p2896
sS'2272d05b959f133bcf3e38c48ddbfcad_3208'
p2897
S'2272d-1'
p2898
sS'4c73c216e72a1ec198cd99f4ee96d2d0_3220'
p2899
S'4c73c-5'
p2900
sS'fff7cc648deea0712f1cced9f01ee4b0_3332'
p2901
S'fff7c-10'
p2902
sS'fffb7baf3c05d96175735e43753e6bf7_3160'
p2903
S'fffb7-2'
p2904
sS'ff861a6981690a6061aa149cc3ccb830_3180'
p2905
S'ff861-1'
p2906
sS'c32e9387f94c67a39d4c35b111302b0b_3208'
p2907
S'c32e9-2'
p2908
sS'c4f1656879c4772eefb301379a510721_3228'
p2909
S'c4f16-2'
p2910
sS'31b164b4dc1d2744bf11183604572648_3200'
p2911
S'31b16-1'
p2912
sS'ffe5e3a2f1cd7de2603f80ff57f8f950_3132'
p2913
S'ffe5e-2'
p2914
sS'ff594ef320881c386b8286996aaa2ba0_3248'
p2915
S'ff594-2'
p2916
sS'11dbaa09f5b949c9d6e0db7e157cc860_3400'
p2917
S'11dba-8'
p2918
sS'b55664cd1314cae5a3172a147c446a67_3268'
p2919
S'b5566-5'
p2920
sS'fffb80ab22a7a992891c7ddb48b99e90_3276'
p2921
S'fffb8-2'
p2922
sS'5ee1ed1d1c3dbbb3e920e56229023080_3296'
p2923
S'5ee1e-6'
p2924
sS'80cf51208fbee22191e5590038b0df80_3296'
p2925
S'80cf5-10'
p2926
sS'ffff739187325e68e7956d0025b00670_3092'
p2927
S'ffff7-1'
p2928
sS'b7e52b14dc1dfa001e3c28b217b104d0_3368'
p2929
S'b7e52-15'
p2930
sS'fffcb60e432a6ce2c7a7e66607ec31f0_3256'
p2931
S'fffcb-2'
p2932
sS'fff47004caa5598f4b98907239d45120_3264'
p2933
S'fff47-3'
p2934
sS'c55c1627f5bf9fc6d85ea6e8501dbf78_3100'
p2935
S'c55c1-1'
p2936
sS'fffdd6746dd4a907d0c9dba435e67de0_3264'
p2937
S'fffdd-2'
p2938
sS'fff59de6968747d90360a320a3308f20_3172'
p2939
S'fff59-2'
p2940
sS'ffdb3c00f7cc7c25f8240eed3a1d4a50_2892'
p2941
S'ffdb3-6'
p2942
sS'ffe8daa35656d80307b04706461325a0_2852'
p2943
S'ffe8d-1'
p2944
sS'ff370d8d8f862222135f1037fff95b90_3228'
p2945
S'ff370-1'
p2946
sS'ffa0fa4008da77739bd046a1c0cc3290_2868'
p2947
S'ffa0f-2'
p2948
sS'b1def3ea5f4f716e30b561cbbfa7dbc7_3032'
p2949
S'b1def-1'
p2950
sS'a21ba6f7535b5d9728a16653a74efd00_3500'
p2951
S'a21ba-8'
p2952
sS'ffdcfda44534d16faf8c8c1080f9ce40_3200'
p2953
S'ffdcf-4'
p2954
sS'a21ba6f7535b5d9728a16653a74efd00_3508'
p2955
S'a21ba-9'
p2956
sS'ff8fe82322f44f33a2c68a52676ddaa0_3172'
p2957
S'ff8fe-1'
p2958
sS'fff70287c0a998781fbdee733b5ec0a0_3124'
p2959
S'fff70-1'
p2960
sS'bc7f15b89bbd891f95425abb4f3b8c30_3252'
p2961
S'bc7f1-4'
p2962
sS'4c73c216e72a1ec198cd99f4ee96d2d0_3176'
p2963
S'4c73c-2'
p2964
sS'a27c21978c8a6226178465fefced555d_3216'
p2965
S'a27c2-1'
p2966
sS'fffe4e8fde7fa45e4ac364e5219d79f0_3144'
p2967
S'fffe4-4'
p2968
sS'd2276a5243924db8aac9fb6f0a3bd408_3340'
p2969
S'd2276-2'
p2970
sS'ffeb3e1830c369456f05c63e78851370_3124'
p2971
S'ffeb3-3'
p2972
sS'fff669f3bb3ec4c7ae6ad373cf42d2e0_3360'
p2973
S'fff66-10'
p2974
sS'b242c1cb8ca5b84b129bffea7bc76fae_3064'
p2975
S'b242c-1'
p2976
sS'ffe6ff3bc571034e680d824eb9f97670_3348'
p2977
S'ffe6f-7'
p2978
sS'a2d9835a375e0d31347266746f62b864_3144'
p2979
S'a2d98-1'
p2980
sS'ffe6ff3bc571034e680d824eb9f97670_3340'
p2981
S'ffe6f-6'
p2982
sS'fff7e9232f2a8824d69152bf7c30c640_3108'
p2983
S'fff7e-1'
p2984
sS'fff23bedcd06cbad51980cf1c7da56f0_3244'
p2985
S'fff23-2'
p2986
sS'fff351ad66140a5e49eb323c4bf53700_3180'
p2987
S'fff35-3'
p2988
sS'fffae342dbd287cdda3c60217d5c7af0_tmp_3388'
p2989
S'fffae-6'
p2990
sS'fffc62a185e4e5e048884d1cffc02ad0_3272'
p2991
S'fffc6-1'
p2992
sS'a21ba6f7535b5d9728a16653a74efd00_3328'
p2993
S'a21ba-1'
p2994
sS'fff69c6601ca8938c571460bb979ba60_3192'
p2995
S'fff69-2'
p2996
sS'32a20d06dc9132648eaead1ca9b1033d_3272'
p2997
S'32a20-1'
p2998
sS'fffb41c114e3c30249ecdd2b3d449910_3212'
p2999
S'fffb4-6'
p3000
sS'5032e7e1f8cd2a9cee4dba605bb71c39_2812'
p3001
S'5032e-1'
p3002
sS'fff0061ee3571f72adf1545a9ddeea10_3260'
p3003
S'fff00-2'
p3004
sS'fff2a5f7289c5a78b10de145cbdcd940_3244'
p3005
S'fff2a-4'
p3006
sS'c55c1627f5bf9fc6d85ea6e8501dbf78_tmp_3448'
p3007
S'c55c1-10'
p3008
sS'fff7ace224f23afb3a26648393d26060_3220'
p3009
S'fff7a-2'
p3010
sS'ffe48b5a702ce1e7ea3c3851d56afe60_3208'
p3011
S'ffe48-2'
p3012
sS'90ff8f17742e35022a36473867119d85_3196'
p3013
S'90ff8-1'
p3014
sS'c1f844e0d2a6b7fdeddc9d6758a1e499_3204'
p3015
S'c1f84-2'
p3016
sS'fff0b549204d64b86a14fe1556ba6c80_3212'
p3017
S'fff0b-1'
p3018
sS'26914ea7c65538ef9954b779ab7dc280_3236'
p3019
S'26914-1'
p3020
sS'fff8ca54b676951797bf85324d808510_3224'
p3021
S'fff8c-4'
p3022
sS'fffab520aaa2e206ad4c822796613f10_3256'
p3023
S'fffab-1'
p3024
sS'33a38040289cb673ebcce042471d35ff_3248'
p3025
S'33a38-1'
p3026
sS'ff7031f9736d360d941dda9f50578e10_3288'
p3027
S'ff703-1'
p3028
sS'ffe9c75a5298da0e3359ffe12b7b7d50_3204'
p3029
S'ffe9c-3'
p3030
sS'ffe19ece6b385773c362198940f76460_3208'
p3031
S'ffe19-1'
p3032
sS'33cc90da028fd1db12c21ac77b6c2532_3280'
p3033
S'33cc9-2'
p3034
sS'f574c368e4e72f242ab4f3caf6f55e80_3172'
p3035
S'f574c-1'
p3036
sS'913cf9179e7dc56363673a926eaf5b7b_3204'
p3037
S'913cf-1'
p3038
sS'fff6c90b89296ccc44816917be8510f0_3180'
p3039
S'fff6c-4'
p3040
sS'ff4c85a4c95549ff240192ac07cf1ba0_3256'
p3041
S'ff4c8-1'
p3042
sS'ffe48b5a702ce1e7ea3c3851d56afe60_3336'
p3043
S'ffe48-9'
p3044
sS'ffdb3c00f7cc7c25f8240eed3a1d4a50_2852'
p3045
S'ffdb3-4'
p3046
sS'fffed6c63f8c3a14238bcf78c80cca10_3160'
p3047
S'fffed-2'
p3048
sS'fff1d12308fc4c98a86069029b8c6da0_3228'
p3049
S'fff1d-1'
p3050
sS'c40f9f7eea18ede8f0f6ed40f3e8d39e_3148'
p3051
S'c40f9-2'
p3052
sS'0c494687e1a01a7e3eefc541f0a91d50_3276'
p3053
S'0c494-12'
p3054
sS'ffe324030cae3b7562f245864b091e00_3252'
p3055
S'ffe32-1'
p3056
sS'fffb7db0b4b343eba03ec29ff81410b0_3272'
p3057
S'fffb7-4'
p3058
sS'a3d453875aea8d2def1aa20f22bd33dc_3220'
p3059
S'a3d45-2'
p3060
sS'fff41d5d937463575f001ce28bee59a0_3152'
p3061
S'fff41-2'
p3062
sS'ffa13d8dec3645aaf9edb78c4ed56ab0_3132'
p3063
S'ffa13-1'
p3064
sS'ffe2a4b63d0ec54823d7d783118ed2a0_tazeDl_3136'
p3065
S'ffe2a-2'
p3066
sS'fff0203b682aa62f1d93c7fbc37915f0_3340'
p3067
S'fff02-12'
p3068
sS'fff904f2adfcd952501731764e154510_3092'
p3069
S'fff90-1'
p3070
sS'ffe5eaa82debc744b9c9c900fa22bc70_3180'
p3071
S'ffe5e-8'
p3072
sS'ffb0188cbcb55477cfa88f57e4bcc1e0_824'
p3073
S'ffb01-1'
p3074
sS'fff9bbf76d90662acdcc3d812a723460_3200'
p3075
S'fff9b-1'
p3076
sS'246920c3ec29d419549fadefd78c30e4_3340'
p3077
S'24692-2'
p3078
sS'260e166c56a4340962aa2bc2cae3eb43_3224'
p3079
S'260e1-2'
p3080
sS'ffe5eaa82debc744b9c9c900fa22bc70_3188'
p3081
S'ffe5e-9'
p3082
sS'fffc811498416b0e15136356057fbce0_3180'
p3083
S'fffc8-1'
p3084
sS'fff65135d468fc1830060cf8a9b01170_3072'
p3085
S'fff65-1'
p3086
sS'c2b5874fc252386e39b1481b375fd68f_2804'
p3087
S'c2b58-1'
p3088
sS'819cf75b209768d2083ee84059ec294f_3208'
p3089
S'819cf-1'
p3090
sS'c4f1656879c4772eefb301379a510721_3188'
p3091
S'c4f16-1'
p3092
sS'ff2deaa8710086f624ade2d1f868c5e0_3332'
p3093
S'ff2de-1'
p3094
sS'ff50f302c7aca26e1cf5c9e5dca39450_3132'
p3095
S'ff50f-1'
p3096
sS'fff3357d3bf495777ed8909a2a6fdcf0_3148'
p3097
S'fff33-3'
p3098
sS'fff2a3b4ac499c3eb13e682855cbf6a0_3228'
p3099
S'fff2a-1'
p3100
sS'fff98513f7dc548029ff5e741b7569c0_3212'
p3101
S'fff98-2'
p3102
sS'28e17f1e110f3508ceb611839986a4f4_3164'
p3103
S'28e17-1'
p3104
s(dp3105
g2078
g2077
sg1574
g1573
sg2732
g2731
sg468
g467
sg462
g461
sg1260
g1259
sg1990
g1989
sg2242
g2241
sg1316
g1315
sg2710
g2709
sg958
g957
sg988
g987
sg504
g503
sg2884
g2883
sg92
g91
sg1410
g1409
sg2802
g2801
sg2128
g2127
sg2748
g2747
sg3096
g3095
sg2460
g2459
sg1976
g1975
sg2626
g2625
sg2832
g2831
sg670
g669
sg2304
g2303
sg2528
g2527
sg1832
g1831
sg2016
g2015
sg1048
g1047
sg1328
g1327
sg1834
g1833
sg80
g79
sg940
g939
sg34
g33
sg2338
g2337
sg1254
g1253
sg1564
g1563
sg2224
g2223
sg1780
g1779
sg2248
g2247
sg1482
g1481
sg2170
g2169
sg2172
g2171
sg812
g811
sg2066
g2065
sg1326
g1325
sg146
g145
sg1700
g1699
sg820
g819
sg1100
g1099
sg1572
g1571
sg424
g423
sg1934
g1933
sg2288
g2287
sg936
g935
sg1144
g1143
sg2106
g2105
sg1958
g1957
sg574
g573
sg2480
g2479
sg2370
g2369
sg240
g239
sg306
g305
sg2746
g2745
sg916
g915
sg3090
g3089
sg1036
g1035
sg2276
g2275
sg340
g339
sg530
g529
sg1312
g1311
sg2206
g2205
sg2598
g2597
sg1454
g1453
sg1710
g1709
sg1810
g1809
sg1296
g1295
sg560
g559
sg1822
g1821
sg1450
g1449
sg524
g523
sg1344
g1343
sg980
g979
sg1966
g1965
sg2336
g2335
sg2784
g2783
sg358
g357
sg794
g793
sg1826
g1825
sg596
g595
sg1174
g1173
sg130
g129
sg382
g381
sg2382
g2381
sg242
g241
sg64
g63
sg2966
g2965
sg1236
g1235
sg62
g61
sg192
g191
sg344
g343
sg2916
g2915
sg1872
g1871
sg1678
g1677
sg1480
g1479
sg2018
g2017
sg2186
g2185
sg1494
g1493
sg2476
g2475
sg828
g827
sg1880
g1879
sg432
g431
sg1982
g1981
sg120
g119
sg1466
g1465
sg848
g847
sg1542
g1541
sg2606
g2605
sg2474
g2473
sg2726
g2725
sg1812
g1811
sg1082
g1081
sg1582
g1581
sg16
g15
sg280
g279
sg1078
g1077
sg532
g531
sg880
g879
sg1146
g1145
sg1636
g1635
sg2082
g2081
sg3066
g3065
sg2482
g2481
sg434
g433
sg2220
g2219
sg426
g425
sg2326
g2325
sg442
g441
sg730
g729
sg1762
g1761
sg1544
g1543
sg1338
g1337
sg1608
g1607
sg2058
g2057
sg668
g667
sg82
g81
sg276
g275
sg1116
g1115
sg60
g59
sg1602
g1601
sg2196
g2195
sg2322
g2321
sg1592
g1591
sg2542
g2541
sg1122
g1121
sg2978
g2977
sg2982
g2981
sg428
g427
sg1366
g1365
sg2008
g2007
sg674
g673
sg742
g741
sg144
g143
sg1978
g1977
sg2650
g2649
sg1406
g1405
sg868
g867
sg800
g799
sg890
g889
sg1470
g1469
sg952
g951
sg2756
g2755
sg734
g733
sg658
g657
sg2148
g2147
sg1304
g1303
sg906
g905
sg2558
g2557
sg1164
g1163
sg1724
g1723
sg968
g967
sg3018
g3017
sg2342
g2341
sg1086
g1085
sg2688
g2687
sg2122
g2121
sg886
g885
sg390
g389
sg1622
g1621
sg2414
g2413
sg1890
g1889
sg1696
g1695
sg804
g803
sg1496
g1495
sg1374
g1373
sg1132
g1131
sg2854
g2853
sg964
g963
sg1310
g1309
sg440
g439
sg1566
g1565
sg1786
g1785
sg1408
g1407
sg1590
g1589
sg1302
g1301
sg2438
g2437
sg584
g583
sg1784
g1783
sg2880
g2879
sg170
g169
sg96
g95
sg184
g183
sg1562
g1561
sg1674
g1673
sg1740
g1739
sg1440
g1439
sg1664
g1663
sg1552
g1551
sg3052
g3051
sg70
g69
sg498
g497
sg2260
g2259
sg1084
g1083
sg884
g883
sg1598
g1597
sg1320
g1319
sg248
g247
sg54
g53
sg2786
g2785
sg2776
g2775
sg1176
g1175
sg1476
g1475
sg2416
g2415
sg1208
g1207
sg2582
g2581
sg1436
g1435
sg1416
g1415
sg818
g817
sg2566
g2565
sg506
g505
sg1842
g1841
sg590
g589
sg2408
g2407
sg1692
g1691
sg1220
g1219
sg2270
g2269
sg2734
g2733
sg1262
g1261
sg2442
g2441
sg644
g643
sg176
g175
sg1776
g1775
sg224
g223
sg2700
g2699
sg86
g85
sg2990
g2989
sg806
g805
sg460
g459
sg302
g301
sg1820
g1819
sg1394
g1393
sg274
g273
sg2146
g2145
sg1758
g1757
sg2816
g2815
sg1690
g1689
sg2588
g2587
sg3048
g3047
sg1008
g1007
sg126
g125
sg1672
g1671
sg768
g767
sg738
g737
sg686
g685
sg2578
g2577
sg2618
g2617
sg2856
g2855
sg1988
g1987
sg2554
g2553
sg2754
g2753
sg2286
g2285
sg1922
g1921
sg996
g995
sg1348
g1347
sg1428
g1427
sg1198
g1197
sg556
g555
sg2668
g2667
sg366
g365
sg2864
g2863
sg748
g747
sg114
g113
sg552
g551
sg2592
g2591
sg714
g713
sg2490
g2489
sg2486
g2485
sg2386
g2385
sg310
g309
sg3012
g3011
sg1154
g1153
sg756
g755
sg998
g997
sg1196
g1195
sg3044
g3043
sg324
g323
sg2136
g2135
sg1298
g1297
sg264
g263
sg1754
g1753
sg1524
g1523
sg374
g373
sg406
g405
sg2752
g2751
sg646
g645
sg326
g325
sg972
g971
sg1184
g1183
sg1434
g1433
sg174
g173
sg1900
g1899
sg1624
g1623
sg1892
g1891
sg632
g631
sg2360
g2359
sg1272
g1271
sg694
g693
sg2026
g2025
sg252
g251
sg48
g47
sg510
g509
sg40
g39
sg3022
g3021
sg826
g825
sg1140
g1139
sg1628
g1627
sg648
g647
sg2320
g2319
sg2158
g2157
sg150
g149
sg1926
g1925
sg1446
g1445
sg20
g19
sg1072
g1071
sg2548
g2547
sg604
g603
sg1550
g1549
sg1038
g1037
sg1998
g1997
sg1850
g1849
sg1770
g1769
sg2400
g2399
sg1290
g1289
sg576
g575
sg710
g709
sg356
g355
sg2876
g2875
sg1956
g1955
sg352
g351
sg1194
g1193
sg2420
g2419
sg1760
g1759
sg766
g765
sg1050
g1049
sg898
g897
sg1026
g1025
sg616
g615
sg2736
g2735
sg1142
g1141
sg2366
g2365
sg2132
g2131
sg920
g919
sg2268
g2267
sg2056
g2055
sg1638
g1637
sg2742
g2741
sg106
g105
sg2308
g2307
sg2178
g2177
sg1506
g1505
sg1942
g1941
sg1000
g999
sg1510
g1509
sg2396
g2395
sg3078
g3077
sg2368
g2367
sg2738
g2737
sg2180
g2179
sg802
g801
sg2912
g2911
sg1734
g1733
sg1242
g1241
sg564
g563
sg1212
g1211
sg2218
g2217
sg1444
g1443
sg2658
g2657
sg1860
g1859
sg1222
g1221
sg496
g495
sg1006
g1005
sg212
g211
sg2526
g2525
sg628
g627
sg1918
g1917
sg1694
g1693
sg2682
g2681
sg2028
g2027
sg1604
g1603
sg1034
g1033
sg2380
g2379
sg1192
g1191
sg568
g567
sg1756
g1755
sg1588
g1587
sg1650
g1649
sg2488
g2487
sg902
g901
sg2204
g2203
sg1368
g1367
sg932
g931
sg354
g353
sg2164
g2163
sg1204
g1203
sg922
g921
sg2576
g2575
sg2038
g2037
sg2194
g2193
sg2902
g2901
sg2696
g2695
sg12
g11
sg1032
g1031
sg394
g393
sg660
g659
sg36
g35
sg1278
g1277
sg364
g363
sg3014
g3013
sg1066
g1065
sg1202
g1201
sg3056
g3055
sg718
g717
sg2636
g2635
sg1596
g1595
sg2310
g2309
sg2142
g2141
sg76
g75
sg208
g207
sg1384
g1383
sg2654
g2653
sg1080
g1079
sg1376
g1375
sg2568
g2567
sg1372
g1371
sg1994
g1993
sg2236
g2235
sg2956
g2955
sg2952
g2951
sg2994
g2993
sg2086
g2085
sg2560
g2559
sg580
g579
sg2290
g2289
sg1114
g1113
sg2506
g2505
sg1744
g1743
sg2412
g2411
sg452
g451
sg1178
g1177
sg2724
g2723
sg2
g1
sg2042
g2041
sg14
g13
sg846
g845
sg1206
g1205
sg350
g349
sg486
g485
sg784
g783
sg2804
g2803
sg1488
g1487
sg464
g463
sg2402
g2401
sg1870
g1869
sg1414
g1413
sg2384
g2383
sg1110
g1109
sg722
g721
sg682
g681
sg1230
g1229
sg18
g17
sg66
g65
sg888
g887
sg180
g179
sg1538
g1537
sg2022
g2021
sg1322
g1321
sg2454
g2453
sg2684
g2683
sg308
g307
sg2190
g2189
sg538
g537
sg1688
g1687
sg1180
g1179
sg194
g193
sg2080
g2079
sg2594
g2593
sg2622
g2621
sg1402
g1401
sg726
g725
sg1088
g1087
sg218
g217
sg2708
g2707
sg2942
g2941
sg2678
g2677
sg190
g189
sg3030
g3029
sg966
g965
sg2656
g2655
sg1028
g1027
sg384
g383
sg1314
g1313
sg22
g21
sg222
g221
sg2448
g2447
sg100
g99
sg810
g809
sg1532
g1531
sg2676
g2675
sg2436
g2435
sg2954
g2953
sg2102
g2101
sg88
g87
sg1462
g1461
sg540
g539
sg630
g629
sg160
g159
sg1002
g1001
sg1130
g1129
sg2760
g2759
sg256
g255
sg1894
g1893
sg3042
g3041
sg246
g245
sg2602
g2601
sg2284
g2283
sg2984
g2983
sg1750
g1749
sg1824
g1823
sg2244
g2243
sg1586
g1585
sg2512
g2511
sg2664
g2663
sg2378
g2377
sg872
g871
sg196
g195
sg74
g73
sg2502
g2501
sg2670
g2669
sg1668
g1667
sg1864
g1863
sg912
g911
sg724
g723
sg1584
g1583
sg2840
g2839
sg1970
g1969
sg634
g633
sg2922
g2921
sg178
g177
sg2094
g2093
sg2312
g2311
sg1874
g1873
sg1614
g1613
sg1844
g1843
sg3000
g2999
sg2330
g2329
sg1546
g1545
sg508
g507
sg1266
g1265
sg2740
g2739
sg866
g865
sg1430
g1429
sg1686
g1685
sg2210
g2209
sg1742
g1741
sg2246
g2245
sg1292
g1291
sg534
g533
sg2002
g2001
sg2532
g2531
sg2972
g2971
sg592
g591
sg2462
g2461
sg2900
g2899
sg2698
g2697
sg1286
g1285
sg2758
g2757
sg2964
g2963
sg1830
g1829
sg2686
g2685
sg2034
g2033
sg1788
g1787
sg1554
g1553
sg2208
g2207
sg2642
g2641
sg986
g985
sg2520
g2519
sg2926
g2925
sg1054
g1053
sg1522
g1521
sg2046
g2045
sg930
g929
sg1738
g1737
sg1186
g1185
sg1802
g1801
sg3008
g3007
sg816
g815
sg1680
g1679
sg1030
g1029
sg2996
g2995
sg3002
g3001
sg720
g719
sg1646
g1645
sg2544
g2543
sg98
g97
sg716
g715
sg2114
g2113
sg230
g229
sg2772
g2771
sg2580
g2579
sg600
g599
sg418
g417
sg864
g863
sg2468
g2467
sg2920
g2919
sg2214
g2213
sg1070
g1069
sg2470
g2469
sg2716
g2715
sg900
g899
sg472
g471
sg1270
g1269
sg1984
g1983
sg3062
g3061
sg2866
g2865
sg822
g821
sg588
g587
sg956
g955
sg1268
g1267
sg2112
g2111
sg2352
g2351
sg1498
g1497
sg2348
g2347
sg870
g869
sg570
g569
sg2444
g2443
sg1772
g1771
sg2202
g2201
sg2000
g1999
sg1018
g1017
sg1238
g1237
sg1500
g1499
sg166
g165
sg164
g163
sg652
g651
sg2118
g2117
sg2280
g2279
sg2878
g2877
sg2628
g2627
sg736
g735
sg1472
g1471
sg1580
g1579
sg978
g977
sg1380
g1379
sg1138
g1137
sg1490
g1489
sg3086
g3085
sg1354
g1353
sg2278
g2277
sg2946
g2945
sg2472
g2471
sg56
g55
sg712
g711
sg1732
g1731
sg1330
g1329
sg2934
g2933
sg1852
g1851
sg2608
g2607
sg3024
g3023
sg1548
g1547
sg594
g593
sg1718
g1717
sg2814
g2813
sg2050
g2049
sg2362
g2361
sg746
g745
sg122
g121
sg450
g449
sg458
g457
sg38
g37
sg1350
g1349
sg708
g707
sg2156
g2155
sg1796
g1795
sg2098
g2097
sg2054
g2053
sg360
g359
sg2874
g2873
sg522
g521
sg448
g447
sg876
g875
sg664
g663
sg2110
g2109
sg1902
g1901
sg1682
g1681
sg142
g141
sg336
g335
sg750
g749
sg502
g501
sg558
g557
sg2392
g2391
sg782
g781
sg1828
g1827
sg214
g213
sg1530
g1529
sg1804
g1803
sg2892
g2891
sg50
g49
sg1210
g1209
sg2404
g2403
sg840
g839
sg2346
g2345
sg2510
g2509
sg1336
g1335
sg3034
g3033
sg1064
g1063
sg1284
g1283
sg1514
g1513
sg608
g607
sg1778
g1777
sg2766
g2765
sg478
g477
sg1858
g1857
sg2570
g2569
sg938
g937
sg954
g953
sg2070
g2069
sg762
g761
sg132
g131
sg1748
g1747
sg3084
g3083
sg1896
g1895
sg1378
g1377
sg154
g153
sg2036
g2035
sg3104
g3103
sg1074
g1073
sg2634
g2633
sg2890
g2889
sg962
g961
sg1096
g1095
sg2010
g2009
sg2694
g2693
sg1504
g1503
sg1160
g1159
sg2124
g2123
sg770
g769
sg1056
g1055
sg1152
g1151
sg546
g545
sg1432
g1431
sg1648
g1647
sg2090
g2089
sg698
g697
sg2216
g2215
sg1390
g1389
sg1526
g1525
sg2674
g2673
sg520
g519
sg3028
g3027
sg282
g281
sg970
g969
sg926
g925
sg702
g701
sg398
g397
sg1252
g1251
sg642
g641
sg1516
g1515
sg1460
g1459
sg2820
g2819
sg182
g181
sg1010
g1009
sg2344
g2343
sg2084
g2083
sg254
g253
sg2388
g2387
sg2152
g2151
sg842
g841
sg1016
g1015
sg1228
g1227
sg2184
g2183
sg622
g621
sg2702
g2701
sg1294
g1293
sg2374
g2373
sg1520
g1519
sg1610
g1609
sg2300
g2299
sg1382
g1381
sg388
g387
sg1932
g1931
sg1888
g1887
sg110
g109
sg484
g483
sg2160
g2159
sg928
g927
sg2266
g2265
sg2968
g2967
sg2154
g2153
sg2790
g2789
sg772
g771
sg2620
g2619
sg2004
g2003
sg2906
g2905
sg2062
g2061
sg2940
g2939
sg2534
g2533
sg3074
g3073
sg1792
g1791
sg1404
g1403
sg286
g285
sg1276
g1275
sg2720
g2719
sg2722
g2721
sg2298
g2297
sg2092
g2091
sg2936
g2935
sg1798
g1797
sg232
g231
sg2574
g2573
sg2792
g2791
sg1040
g1039
sg490
g489
sg2252
g2251
sg1076
g1075
sg2228
g2227
sg3098
g3097
sg1218
g1217
sg332
g331
sg2638
g2637
sg666
g665
sg2182
g2181
sg2410
g2409
sg2858
g2857
sg2572
g2571
sg500
g499
sg856
g855
sg1024
g1023
sg850
g849
sg950
g949
sg2872
g2871
sg536
g535
sg1386
g1385
sg844
g843
sg626
g625
sg420
g419
sg2728
g2727
sg24
g23
sg272
g271
sg2924
g2923
sg650
g649
sg2426
g2425
sg2508
g2507
sg1226
g1225
sg2340
g2339
sg3020
g3019
sg620
g619
sg3068
g3067
sg2640
g2639
sg796
g795
sg368
g367
sg852
g851
sg2660
g2659
sg2176
g2175
sg1540
g1539
sg1930
g1929
sg1996
g1995
sg2612
g2611
sg3016
g3015
sg728
g727
sg1420
g1419
sg1468
g1467
sg994
g993
sg1944
g1943
sg292
g291
sg414
g413
sg2318
g2317
sg466
g465
sg1662
g1661
sg72
g71
sg2108
g2107
sg904
g903
sg944
g943
sg1244
g1243
sg3076
g3075
sg518
g517
sg1684
g1683
sg894
g893
sg338
g337
sg862
g861
sg2238
g2237
sg1986
g1985
sg814
g813
sg2546
g2545
sg2226
g2225
sg2458
g2457
sg2604
g2603
sg1486
g1485
sg1980
g1979
sg548
g547
sg2350
g2349
sg2562
g2561
sg2274
g2273
sg914
g913
sg1746
g1745
sg2886
g2885
sg1606
g1605
sg3088
g3087
sg1928
g1927
sg2822
g2821
sg1626
g1625
sg2848
g2847
sg136
g135
sg1418
g1417
sg1722
g1721
sg1728
g1727
sg1968
g1967
sg2174
g2173
sg612
g611
sg2292
g2291
sg2624
g2623
sg1022
g1021
sg706
g705
sg1600
g1599
sg1878
g1877
sg2788
g2787
sg1364
g1363
sg2958
g2957
sg2504
g2503
sg1620
g1619
sg2192
g2191
sg266
g265
sg1258
g1257
sg2744
g2743
sg1358
g1357
sg206
g205
sg1640
g1639
sg672
g671
sg2950
g2949
sg2530
g2529
sg1938
g1937
sg2076
g2075
sg836
g835
sg2168
g2167
sg1452
g1451
sg482
g481
sg2060
g2059
sg492
g491
sg1068
g1067
sg476
g475
sg1042
g1041
sg1232
g1231
sg692
g691
sg960
g959
sg2440
g2439
sg1752
g1751
sg3060
g3059
sg656
g655
sg30
g29
sg228
g227
sg1400
g1399
sg1352
g1351
sg2030
g2029
sg2930
g2929
sg438
g437
sg1426
g1425
sg774
g773
sg3010
g3009
sg2134
g2133
sg2828
g2827
sg2376
g2375
sg1972
g1971
sg1924
g1923
sg1438
g1437
sg1004
g1003
sg2630
g2629
sg2328
g2327
sg488
g487
sg942
g941
sg704
g703
sg924
g923
sg1528
g1527
sg2334
g2333
sg186
g185
sg168
g167
sg1062
g1061
sg1502
g1501
sg2478
g2477
sg2718
g2717
sg2914
g2913
sg216
g215
sg3082
g3081
sg3072
g3071
sg882
g881
sg984
g983
sg2768
g2767
sg2072
g2071
sg1044
g1043
sg2798
g2797
sg516
g515
sg2126
g2125
sg1464
g1463
sg2852
g2851
sg2516
g2515
sg210
g209
sg296
g295
sg512
g511
sg318
g317
sg764
g763
sg316
g315
sg234
g233
sg2918
g2917
sg2778
g2777
sg1448
g1447
sg602
g601
sg1020
g1019
sg2538
g2537
sg2456
g2455
sg430
g429
sg42
g41
sg654
g653
sg238
g237
sg1818
g1817
sg1306
g1305
sg2556
g2555
sg2646
g2645
sg1992
g1991
sg2818
g2817
sg300
g299
sg2932
g2931
sg3094
g3093
sg2048
g2047
sg542
g541
sg1150
g1149
sg102
g101
sg134
g133
sg2824
g2823
sg2536
g2535
sg2794
g2793
sg3036
g3035
sg1782
g1781
sg1556
g1555
sg474
g473
sg754
g753
sg68
g67
sg776
g775
sg1274
g1273
sg156
g155
sg606
g605
sg2986
g2985
sg1712
g1711
sg1536
g1535
sg1736
g1735
sg410
g409
sg974
g973
sg2616
g2615
sg2610
g2609
sg112
g111
sg1234
g1233
sg1764
g1763
sg2860
g2859
sg562
g561
sg550
g549
sg1052
g1051
sg2842
g2841
sg2358
g2357
sg1250
g1249
sg90
g89
sg2666
g2665
sg2372
g2371
sg2632
g2631
sg2844
g2843
sg3050
g3049
sg3054
g3053
sg1920
g1919
sg2272
g2271
sg2614
g2613
sg2120
g2119
sg778
g777
sg2652
g2651
sg808
g807
sg1360
g1359
sg1182
g1181
sg1422
g1421
sg342
g341
sg148
g147
sg2100
g2099
sg1962
g1961
sg284
g283
sg1334
g1333
sg1954
g1953
sg1916
g1915
sg436
g435
sg1576
g1575
sg1808
g1807
sg2494
g2493
sg1300
g1299
sg896
g895
sg678
g677
sg456
g455
sg262
g261
sg2150
g2149
sg1570
g1569
sg838
g837
sg10
g9
sg760
g759
sg526
g525
sg328
g327
sg188
g187
sg386
g385
sg2888
g2887
sg1280
g1279
sg1308
g1307
sg2980
g2979
sg2714
g2713
sg946
g945
sg172
g171
sg2826
g2825
sg376
g375
sg348
g347
sg1412
g1411
sg1960
g1959
sg1702
g1701
sg1854
g1853
sg1392
g1391
sg1666
g1665
sg1630
g1629
sg732
g731
sg2166
g2165
sg2800
g2799
sg2324
g2323
sg2552
g2551
sg1534
g1533
sg380
g379
sg412
g411
sg1200
g1199
sg226
g225
sg244
g243
sg1118
g1117
sg2836
g2835
sg514
g513
sg3004
g3003
sg3046
g3045
sg752
g751
sg124
g123
sg1952
g1951
sg2704
g2703
sg2240
g2239
sg2256
g2255
sg104
g103
sg2296
g2295
sg3092
g3091
sg2910
g2909
sg2680
g2679
sg1092
g1091
sg2068
g2067
sg786
g785
sg1478
g1477
sg402
g401
sg2882
g2881
sg8
g7
sg1726
g1725
sg2974
g2973
sg598
g597
sg1806
g1805
sg2356
g2355
sg2434
g2433
sg1658
g1657
sg892
g891
sg2040
g2039
sg688
g687
sg918
g917
sg798
g797
sg1618
g1617
sg1838
g1837
sg2052
g2051
sg2484
g2483
sg1946
g1945
sg116
g115
sg1162
g1161
sg26
g25
sg2198
g2197
sg2354
g2353
sg288
g287
sg362
g361
sg1484
g1483
sg378
g377
sg158
g157
sg2306
g2305
sg1240
g1239
sg396
g395
sg572
g571
sg1318
g1317
sg2976
g2975
sg304
g303
sg2418
g2417
sg990
g989
sg1836
g1835
sg1518
g1517
sg788
g787
sg2032
g2031
sg236
g235
sg1288
g1287
sg2870
g2869
sg3070
g3069
sg1474
g1473
sg3032
g3031
sg2254
g2253
sg1814
g1813
sg1914
g1913
sg1106
g1105
sg908
g907
sg2406
g2405
sg1578
g1577
sg2498
g2497
sg2730
g2729
sg2690
g2689
sg638
g637
sg586
g585
sg1102
g1101
sg2188
g2187
sg680
g679
sg1134
g1133
sg2540
g2539
sg1120
g1119
sg58
g57
sg2834
g2833
sg320
g319
sg740
g739
sg32
g31
sg2212
g2211
sg1898
g1897
sg1058
g1057
sg258
g257
sg2960
g2959
sg2992
g2991
sg314
g313
sg1014
g1013
sg2764
g2763
sg2316
g2315
sg128
g127
sg1170
g1169
sg1246
g1245
sg2590
g2589
sg1964
g1963
sg2162
g2161
sg2998
g2997
sg1716
g1715
sg2332
g2331
sg2492
g2491
sg1046
g1045
sg44
g43
sg854
g853
sg1124
g1123
sg2006
g2005
sg1974
g1973
sg566
g565
sg1594
g1593
sg2514
g2513
sg4
g3
sg1720
g1719
sg2750
g2749
sg2500
g2499
sg1706
g1705
sg1398
g1397
sg1654
g1653
sg2264
g2263
sg1708
g1707
sg400
g399
sg404
g403
sg1950
g1949
sg408
g407
sg2104
g2103
sg860
g859
sg2302
g2301
sg2762
g2761
sg690
g689
sg614
g613
sg578
g577
sg1332
g1331
sg1148
g1147
sg2796
g2795
sg1868
g1867
sg2518
g2517
sg2648
g2647
sg2424
g2423
sg2868
g2867
sg28
g27
sg2064
g2063
sg2262
g2261
sg1112
g1111
sg1340
g1339
sg2944
g2943
sg260
g259
sg2450
g2449
sg2140
g2139
sg636
g635
sg298
g297
sg2908
g2907
sg2074
g2073
sg2780
g2779
sg1248
g1247
sg84
g83
sg2988
g2987
sg480
g479
sg372
g371
sg2522
g2521
sg94
g93
sg2452
g2451
sg1940
g1939
sg1848
g1847
sg2806
g2805
sg830
g829
sg1396
g1395
sg3040
g3039
sg2432
g2431
sg1442
g1441
sg2584
g2583
sg454
g453
sg1282
g1281
sg2662
g2661
sg1224
g1223
sg1104
g1103
sg290
g289
sg1214
g1213
sg220
g219
sg554
g553
sg312
g311
sg792
g791
sg610
g609
sg1936
g1935
sg78
g77
sg684
g683
sg1768
g1767
sg2314
g2313
sg46
g45
sg976
g975
sg3100
g3099
sg824
g823
sg1512
g1511
sg294
g293
sg3006
g3005
sg832
g831
sg1060
g1059
sg910
g909
sg2014
g2013
sg2712
g2711
sg370
g369
sg582
g581
sg2644
g2643
sg1698
g1697
sg1094
g1093
sg2044
g2043
sg1158
g1157
sg544
g543
sg2904
g2903
sg758
g757
sg3058
g3057
sg2808
g2807
sg138
g137
sg2564
g2563
sg2524
g2523
sg2428
g2427
sg2838
g2837
sg1644
g1643
sg2116
g2115
sg1876
g1875
sg780
g779
sg948
g947
sg1424
g1423
sg1168
g1167
sg1906
g1905
sg1704
g1703
sg3102
g3101
sg2948
g2947
sg2144
g2143
sg1910
g1909
sg2282
g2281
sg1108
g1107
sg1388
g1387
sg2550
g2549
sg1642
g1641
sg1656
g1655
sg790
g789
sg934
g933
sg1508
g1507
sg1676
g1675
sg118
g117
sg1568
g1567
sg2258
g2257
sg2024
g2023
sg662
g661
sg278
g277
sg2430
g2429
sg2672
g2671
sg2706
g2705
sg2446
g2445
sg1794
g1793
sg1908
g1907
sg3064
g3063
sg1632
g1631
sg2364
g2363
sg2586
g2585
sg2898
g2897
sg392
g391
sg2020
g2019
sg322
g321
sg1256
g1255
sg2398
g2397
sg3038
g3037
sg1190
g1189
sg992
g991
sg202
g201
sg2692
g2691
sg2894
g2893
sg618
g617
sg2138
g2137
sg1356
g1355
sg878
g877
sg1766
g1765
sg874
g873
sg2862
g2861
sg1492
g1491
sg346
g345
sg2422
g2421
sg744
g743
sg330
g329
sg700
g699
sg1166
g1165
sg528
g527
sg1172
g1171
sg1816
g1815
sg268
g267
sg2770
g2769
sg624
g623
sg1840
g1839
sg198
g197
sg1216
g1215
sg2810
g2809
sg6
g5
sg1560
g1559
sg1882
g1881
sg2846
g2845
sg1790
g1789
sg1912
g1911
sg2130
g2129
sg696
g695
sg2830
g2829
sg1652
g1651
sg1886
g1885
sg1670
g1669
sg1098
g1097
sg2294
g2293
sg1264
g1263
sg1342
g1341
sg270
g269
sg2200
g2199
sg1456
g1455
sg1136
g1135
sg2096
g2095
sg1866
g1865
sg1660
g1659
sg2390
g2389
sg834
g833
sg1634
g1633
sg200
g199
sg494
g493
sg1800
g1799
sg2812
g2811
sg2464
g2463
sg1370
g1369
sg204
g203
sg1730
g1729
sg140
g139
sg1948
g1947
sg2896
g2895
sg2232
g2231
sg1324
g1323
sg2774
g2773
sg2234
g2233
sg1558
g1557
sg162
g161
sg1128
g1127
sg2970
g2969
sg1156
g1155
sg2850
g2849
sg1458
g1457
sg1362
g1361
sg334
g333
sg416
g415
sg2466
g2465
sg2600
g2599
sg982
g981
sg2250
g2249
sg1090
g1089
sg2230
g2229
sg108
g107
sg1904
g1903
sg1346
g1345
sg3080
g3079
sg422
g421
sg152
g151
sg1846
g1845
sg1188
g1187
sg2928
g2927
sg1774
g1773
sg2938
g2937
sg858
g857
sg2012
g2011
sg640
g639
sg3026
g3025
sg2394
g2393
sg2222
g2221
sg2782
g2781
sg2596
g2595
sg1612
g1611
sg2088
g2087
sg1862
g1861
sg2496
g2495
sg444
g443
sg250
g249
sg52
g51
sg2962
g2961
sg1012
g1011
sg1616
g1615
sg676
g675
sg1714
g1713
sg446
g445
sg1856
g1855
sg470
g469
sg1884
g1883
sg1126
g1125
stp3106
.